
vmlinux:     file format elf32-tradbigmips

Disassembly of section .except_vec3:

80000080 <except_vec3>:
80000080:	00000000 	nop
80000084:	401b6800 	mfc0	k1,c0_cause
80000088:	3c1a8001 	lui	k0,0x8001
8000008c:	275a7540 	addiu	k0,k0,30016
80000090:	337b007c 	andi	k1,k1,0x7c
80000094:	035bd021 	addu	k0,k0,k1
80000098:	8f5a0000 	lw	k0,0(k0)
8000009c:	00000000 	nop
800000a0:	03400008 	jr	k0
800000a4:	00000000 	nop
Disassembly of section .text:

80010000 <_start>:
80010000:	40806000 	mtc0	zero,c0_status
80010004:	00000000 	nop
80010008:	40809000 	mtc0	zero,c0_watchlo
8001000c:	00000000 	nop
80010010:	40809800 	mtc0	zero,c0_watchhi
80010014:	00000000 	nop
80010018:	40088000 	mfc0	t0,c0_config
8001001c:	2401fff8 	li	at,-8
80010020:	01014024 	and	t0,t0,at
80010024:	35080002 	ori	t0,t0,0x2
80010028:	40888000 	mtc0	t0,c0_config
8001002c:	3c1d8040 	lui	sp,0x8040
80010030:	3c088040 	lui	t0,0x8040
80010034:	3c018001 	lui	at,0x8001
80010038:	0c004014 	jal	80010050 <main>
8001003c:	ac284b80 	sw	t0,19328(at)

80010040 <loop>:
80010040:	08004010 	j	80010040 <loop>
80010044:	00000000 	nop
	...

80010050 <main>:
80010050:	27bdffe8 	addiu	sp,sp,-24
80010054:	afbf0010 	sw	ra,16(sp)
80010058:	3c048001 	lui	a0,0x8001
8001005c:	0c004755 	jal	80011d54 <printf>
80010060:	24844430 	addiu	a0,a0,17456
80010064:	0c004024 	jal	80010090 <mips_init>
80010068:	00000000 	nop
8001006c:	3c048001 	lui	a0,0x8001
80010070:	2484444c 	addiu	a0,a0,17484
80010074:	24050014 	li	a1,20
80010078:	3c068001 	lui	a2,0x8001
8001007c:	0c004764 	jal	80011d90 <_panic>
80010080:	24c64454 	addiu	a2,a2,17492
	...

80010090 <mips_init>:
80010090:	27bdffe8 	addiu	sp,sp,-24
80010094:	afbf0014 	sw	ra,20(sp)
80010098:	afb00010 	sw	s0,16(sp)
8001009c:	3c048001 	lui	a0,0x8001
800100a0:	0c004755 	jal	80011d54 <printf>
800100a4:	2484446c 	addiu	a0,a0,17516
800100a8:	0c004a0c 	jal	80012830 <mips_detect_memory>
800100ac:	3c108001 	lui	s0,0x8001
800100b0:	0c004ad3 	jal	80012b4c <mips_vm_init>
800100b4:	00000000 	nop
800100b8:	0c004b1f 	jal	80012c7c <page_init>
800100bc:	00000000 	nop
800100c0:	0c00411a 	jal	80010468 <env_init>
800100c4:	00000000 	nop
800100c8:	3c048001 	lui	a0,0x8001
800100cc:	24844b90 	addiu	a0,a0,19344
800100d0:	0c004225 	jal	80010894 <env_create>
800100d4:	24052d00 	li	a1,11520
800100d8:	3c048001 	lui	a0,0x8001
800100dc:	24846044 	addiu	a0,a0,24644
800100e0:	0c004225 	jal	80010894 <env_create>
800100e4:	24052d00 	li	a1,11520
800100e8:	0c0049b4 	jal	800126d0 <trap_init>
800100ec:	00000000 	nop
800100f0:	0c0044f8 	jal	800113e0 <kclock_init>
800100f4:	00000000 	nop
800100f8:	0c0042d0 	jal	80010b40 <env_run>
800100fc:	8e047520 	lw	a0,29984(s0)
80010100:	8e047520 	lw	a0,29984(s0)
80010104:	0c0042d0 	jal	80010b40 <env_run>
80010108:	248400d8 	addiu	a0,a0,216
8001010c:	3c048001 	lui	a0,0x8001
80010110:	2484448c 	addiu	a0,a0,17548
80010114:	2405001d 	li	a1,29
80010118:	3c068001 	lui	a2,0x8001
8001011c:	0c004764 	jal	80011d90 <_panic>
80010120:	24c64494 	addiu	a2,a2,17556

80010124 <bcopy>:
80010124:	00c53021 	addu	a2,a2,a1
80010128:	24a20003 	addiu	v0,a1,3
8001012c:	0046102b 	sltu	v0,v0,a2
80010130:	1040000a 	beqz	v0,8001015c <bcopy+0x38>
80010134:	00a6102b 	sltu	v0,a1,a2
80010138:	00a01821 	move	v1,a1
8001013c:	8c820000 	lw	v0,0(a0)
80010140:	aca20000 	sw	v0,0(a1)
80010144:	24a50004 	addiu	a1,a1,4
80010148:	24630007 	addiu	v1,v1,7
8001014c:	0066182b 	sltu	v1,v1,a2
80010150:	1460fff9 	bnez	v1,80010138 <bcopy+0x14>
80010154:	24840004 	addiu	a0,a0,4
80010158:	00a6102b 	sltu	v0,a1,a2
8001015c:	10400006 	beqz	v0,80010178 <bcopy+0x54>
80010160:	00a01821 	move	v1,a1
80010164:	90820000 	lbu	v0,0(a0)
80010168:	a0620000 	sb	v0,0(v1)
8001016c:	24630001 	addiu	v1,v1,1
80010170:	1466fffc 	bne	v1,a2,80010164 <bcopy+0x40>
80010174:	24840001 	addiu	a0,a0,1
80010178:	03e00008 	jr	ra
8001017c:	00000000 	nop

80010180 <bzero>:
80010180:	00a42821 	addu	a1,a1,a0
80010184:	24820003 	addiu	v0,a0,3
80010188:	0045102b 	sltu	v0,v0,a1
8001018c:	10400008 	beqz	v0,800101b0 <bzero+0x30>
80010190:	0085102b 	sltu	v0,a0,a1
80010194:	00801021 	move	v0,a0
80010198:	ac800000 	sw	zero,0(a0)
8001019c:	24420007 	addiu	v0,v0,7
800101a0:	0045102b 	sltu	v0,v0,a1
800101a4:	1440fffb 	bnez	v0,80010194 <bzero+0x14>
800101a8:	24840004 	addiu	a0,a0,4
800101ac:	0085102b 	sltu	v0,a0,a1
800101b0:	10400005 	beqz	v0,800101c8 <bzero+0x48>
800101b4:	00801021 	move	v0,a0
800101b8:	a0400000 	sb	zero,0(v0)
800101bc:	24420001 	addiu	v0,v0,1
800101c0:	1445fffd 	bne	v0,a1,800101b8 <bzero+0x38>
800101c4:	00000000 	nop
800101c8:	03e00008 	jr	ra
800101cc:	00000000 	nop

800101d0 <printcharc>:
800101d0:	308400ff 	andi	a0,a0,0xff
800101d4:	3c029000 	lui	v0,0x9000
800101d8:	a0440000 	sb	a0,0(v0)
800101dc:	03e00008 	jr	ra
800101e0:	00000000 	nop

800101e4 <halt>:
800101e4:	3c029000 	lui	v0,0x9000
800101e8:	34420010 	ori	v0,v0,0x10
800101ec:	a0400000 	sb	zero,0(v0)
800101f0:	03e00008 	jr	ra
800101f4:	00000000 	nop

800101f8 <printstr>:
800101f8:	27bdffe8 	addiu	sp,sp,-24
800101fc:	afbf0014 	sw	ra,20(sp)
80010200:	afb00010 	sw	s0,16(sp)
80010204:	00808021 	move	s0,a0
80010208:	80840000 	lb	a0,0(a0)
8001020c:	10800006 	beqz	a0,80010228 <printstr+0x30>
80010210:	8fbf0014 	lw	ra,20(sp)
80010214:	0c004074 	jal	800101d0 <printcharc>
80010218:	26100001 	addiu	s0,s0,1
8001021c:	82040000 	lb	a0,0(s0)
80010220:	1480fffc 	bnez	a0,80010214 <printstr+0x1c>
80010224:	8fbf0014 	lw	ra,20(sp)
80010228:	8fb00010 	lw	s0,16(sp)
8001022c:	03e00008 	jr	ra
80010230:	27bd0018 	addiu	sp,sp,24
	...

80010240 <mkenvid>:
80010240:	3c028001 	lui	v0,0x8001
80010244:	8c427520 	lw	v0,29984(v0)
80010248:	00822023 	subu	a0,a0,v0
8001024c:	000420c3 	sra	a0,a0,0x3
80010250:	00041080 	sll	v0,a0,0x2
80010254:	00041900 	sll	v1,a0,0x4
80010258:	00431021 	addu	v0,v0,v1
8001025c:	00441023 	subu	v0,v0,a0
80010260:	00021a40 	sll	v1,v0,0x9
80010264:	00621823 	subu	v1,v1,v0
80010268:	00031480 	sll	v0,v1,0x12
8001026c:	00621821 	addu	v1,v1,v0
80010270:	00031823 	negu	v1,v1
80010274:	3c048001 	lui	a0,0x8001
80010278:	8c827528 	lw	v0,29992(a0)
8001027c:	24420001 	addiu	v0,v0,1
80010280:	ac827528 	sw	v0,29992(a0)
80010284:	000212c0 	sll	v0,v0,0xb
80010288:	03e00008 	jr	ra
8001028c:	00621025 	or	v0,v1,v0

80010290 <envid2env>:
80010290:	14800006 	bnez	a0,800102ac <envid2env+0x1c>
80010294:	308703ff 	andi	a3,a0,0x3ff
80010298:	3c028001 	lui	v0,0x8001
8001029c:	8c427524 	lw	v0,29988(v0)
800102a0:	aca20000 	sw	v0,0(a1)
800102a4:	03e00008 	jr	ra
800102a8:	00001021 	move	v0,zero
800102ac:	3c028001 	lui	v0,0x8001
800102b0:	8c497520 	lw	t1,29984(v0)
800102b4:	000718c0 	sll	v1,a3,0x3
800102b8:	00071140 	sll	v0,a3,0x5
800102bc:	00431023 	subu	v0,v0,v1
800102c0:	000218c0 	sll	v1,v0,0x3
800102c4:	00431021 	addu	v0,v0,v1
800102c8:	00494021 	addu	t0,v0,t1
800102cc:	8d0200ac 	lw	v0,172(t0)
800102d0:	10400004 	beqz	v0,800102e4 <envid2env+0x54>
800102d4:	00000000 	nop
800102d8:	8d0200a4 	lw	v0,164(t0)
800102dc:	10820004 	beq	a0,v0,800102f0 <envid2env+0x60>
800102e0:	00000000 	nop
800102e4:	aca00000 	sw	zero,0(a1)
800102e8:	03e00008 	jr	ra
800102ec:	2402fffe 	li	v0,-2
800102f0:	14c0001a 	bnez	a2,8001035c <envid2env+0xcc>
800102f4:	00000000 	nop
800102f8:	10000016 	b	80010354 <envid2env+0xc4>
800102fc:	aca80000 	sw	t0,0(a1)
80010300:	01001021 	move	v0,t0
80010304:	8c4200a8 	lw	v0,168(v0)
80010308:	304703ff 	andi	a3,v0,0x3ff
8001030c:	000718c0 	sll	v1,a3,0x3
80010310:	00071140 	sll	v0,a3,0x5
80010314:	00431023 	subu	v0,v0,v1
80010318:	000218c0 	sll	v1,v0,0x3
8001031c:	00431021 	addu	v0,v0,v1
80010320:	01221021 	addu	v0,t1,v0
80010324:	10820005 	beq	a0,v0,8001033c <envid2env+0xac>
80010328:	00000000 	nop
8001032c:	10e00005 	beqz	a3,80010344 <envid2env+0xb4>
80010330:	00000000 	nop
80010334:	1000fff4 	b	80010308 <envid2env+0x78>
80010338:	8c4200a8 	lw	v0,168(v0)
8001033c:	14e00004 	bnez	a3,80010350 <envid2env+0xc0>
80010340:	00000000 	nop
80010344:	aca00000 	sw	zero,0(a1)
80010348:	03e00008 	jr	ra
8001034c:	2402fffe 	li	v0,-2
80010350:	aca80000 	sw	t0,0(a1)
80010354:	03e00008 	jr	ra
80010358:	00001021 	move	v0,zero
8001035c:	3c028001 	lui	v0,0x8001
80010360:	8c447524 	lw	a0,29988(v0)
80010364:	1104fff5 	beq	t0,a0,8001033c <envid2env+0xac>
80010368:	00000000 	nop
8001036c:	14e0ffe4 	bnez	a3,80010300 <envid2env+0x70>
80010370:	00000000 	nop
80010374:	1000fff4 	b	80010348 <envid2env+0xb8>
80010378:	aca00000 	sw	zero,0(a1)

8001037c <envid2env1>:
8001037c:	14800006 	bnez	a0,80010398 <envid2env1+0x1c>
80010380:	308703ff 	andi	a3,a0,0x3ff
80010384:	3c028001 	lui	v0,0x8001
80010388:	8c427524 	lw	v0,29988(v0)
8001038c:	aca20000 	sw	v0,0(a1)
80010390:	03e00008 	jr	ra
80010394:	00001021 	move	v0,zero
80010398:	3c028001 	lui	v0,0x8001
8001039c:	8c497520 	lw	t1,29984(v0)
800103a0:	000718c0 	sll	v1,a3,0x3
800103a4:	00071140 	sll	v0,a3,0x5
800103a8:	00431023 	subu	v0,v0,v1
800103ac:	000218c0 	sll	v1,v0,0x3
800103b0:	00431021 	addu	v0,v0,v1
800103b4:	00494021 	addu	t0,v0,t1
800103b8:	8d0200ac 	lw	v0,172(t0)
800103bc:	10400004 	beqz	v0,800103d0 <envid2env1+0x54>
800103c0:	00000000 	nop
800103c4:	8d0200a4 	lw	v0,164(t0)
800103c8:	10820004 	beq	a0,v0,800103dc <envid2env1+0x60>
800103cc:	00000000 	nop
800103d0:	aca00000 	sw	zero,0(a1)
800103d4:	03e00008 	jr	ra
800103d8:	2402fffe 	li	v0,-2
800103dc:	14c0001a 	bnez	a2,80010448 <envid2env1+0xcc>
800103e0:	00000000 	nop
800103e4:	10000016 	b	80010440 <envid2env1+0xc4>
800103e8:	aca80000 	sw	t0,0(a1)
800103ec:	01001021 	move	v0,t0
800103f0:	8c4200a8 	lw	v0,168(v0)
800103f4:	304703ff 	andi	a3,v0,0x3ff
800103f8:	000718c0 	sll	v1,a3,0x3
800103fc:	00071140 	sll	v0,a3,0x5
80010400:	00431023 	subu	v0,v0,v1
80010404:	000218c0 	sll	v1,v0,0x3
80010408:	00431021 	addu	v0,v0,v1
8001040c:	01221021 	addu	v0,t1,v0
80010410:	10820005 	beq	a0,v0,80010428 <envid2env1+0xac>
80010414:	00000000 	nop
80010418:	10e00005 	beqz	a3,80010430 <envid2env1+0xb4>
8001041c:	00000000 	nop
80010420:	1000fff4 	b	800103f4 <envid2env1+0x78>
80010424:	8c4200a8 	lw	v0,168(v0)
80010428:	14e00004 	bnez	a3,8001043c <envid2env1+0xc0>
8001042c:	00000000 	nop
80010430:	aca00000 	sw	zero,0(a1)
80010434:	03e00008 	jr	ra
80010438:	2402fffe 	li	v0,-2
8001043c:	aca80000 	sw	t0,0(a1)
80010440:	03e00008 	jr	ra
80010444:	00001021 	move	v0,zero
80010448:	3c028001 	lui	v0,0x8001
8001044c:	8c447524 	lw	a0,29988(v0)
80010450:	1104fff5 	beq	t0,a0,80010428 <envid2env1+0xac>
80010454:	00000000 	nop
80010458:	14e0ffe4 	bnez	a3,800103ec <envid2env1+0x70>
8001045c:	00000000 	nop
80010460:	1000fff4 	b	80010434 <envid2env1+0xb8>
80010464:	aca00000 	sw	zero,0(a1)

80010468 <env_init>:
80010468:	27bdffe8 	addiu	sp,sp,-24
8001046c:	afbf0010 	sw	ra,16(sp)
80010470:	3c048001 	lui	a0,0x8001
80010474:	248444bc 	addiu	a0,a0,17596
80010478:	3c028001 	lui	v0,0x8001
8001047c:	0c004755 	jal	80011d54 <printf>
80010480:	8c457520 	lw	a1,29984(v0)
80010484:	3c028001 	lui	v0,0x8001
80010488:	ac40752c 	sw	zero,29996(v0)
8001048c:	3c020003 	lui	v0,0x3
80010490:	34445f28 	ori	a0,v0,0x5f28
80010494:	3c058001 	lui	a1,0x8001
80010498:	3c078001 	lui	a3,0x8001
8001049c:	24e9752c 	addiu	t1,a3,29996
800104a0:	2408ff28 	li	t0,-216
800104a4:	00803021 	move	a2,a0
800104a8:	8ca27520 	lw	v0,29984(a1)
800104ac:	00441021 	addu	v0,v0,a0
800104b0:	ac4000ac 	sw	zero,172(v0)
800104b4:	8ce3752c 	lw	v1,29996(a3)
800104b8:	8ca27520 	lw	v0,29984(a1)
800104bc:	00441021 	addu	v0,v0,a0
800104c0:	10600006 	beqz	v1,800104dc <env_init+0x74>
800104c4:	ac43009c 	sw	v1,156(v0)
800104c8:	8ce3752c 	lw	v1,29996(a3)
800104cc:	8ca27520 	lw	v0,29984(a1)
800104d0:	00821021 	addu	v0,a0,v0
800104d4:	2442009c 	addiu	v0,v0,156
800104d8:	ac6200a0 	sw	v0,160(v1)
800104dc:	8ca27520 	lw	v0,29984(a1)
800104e0:	00c21021 	addu	v0,a2,v0
800104e4:	ace2752c 	sw	v0,29996(a3)
800104e8:	2484ff28 	addiu	a0,a0,-216
800104ec:	1488ffed 	bne	a0,t0,800104a4 <env_init+0x3c>
800104f0:	ac4900a0 	sw	t1,160(v0)
800104f4:	3c048001 	lui	a0,0x8001
800104f8:	0c004755 	jal	80011d54 <printf>
800104fc:	248444d4 	addiu	a0,a0,17620
80010500:	8fbf0010 	lw	ra,16(sp)
80010504:	03e00008 	jr	ra
80010508:	27bd0018 	addiu	sp,sp,24

8001050c <env_setup_vm>:
8001050c:	27bdffd8 	addiu	sp,sp,-40
80010510:	afbf0024 	sw	ra,36(sp)
80010514:	afb00020 	sw	s0,32(sp)
80010518:	00808021 	move	s0,a0
8001051c:	afa00018 	sw	zero,24(sp)
80010520:	0c004ba0 	jal	80012e80 <page_alloc>
80010524:	27a40018 	addiu	a0,sp,24
80010528:	04410007 	bgez	v0,80010548 <env_setup_vm+0x3c>
8001052c:	8fa30018 	lw	v1,24(sp)
80010530:	3c048001 	lui	a0,0x8001
80010534:	248444f0 	addiu	a0,a0,17648
80010538:	2405009c 	li	a1,156
8001053c:	3c068001 	lui	a2,0x8001
80010540:	0c004764 	jal	80011d90 <_panic>
80010544:	24c644f8 	addiu	a2,a2,17656
80010548:	94620008 	lhu	v0,8(v1)
8001054c:	24420001 	addiu	v0,v0,1
80010550:	a4620008 	sh	v0,8(v1)
80010554:	3c028001 	lui	v0,0x8001
80010558:	8c4275d4 	lw	v0,30164(v0)
8001055c:	8fa30018 	lw	v1,24(sp)
80010560:	00621823 	subu	v1,v1,v0
80010564:	00031883 	sra	v1,v1,0x2
80010568:	00031080 	sll	v0,v1,0x2
8001056c:	00431021 	addu	v0,v0,v1
80010570:	00021900 	sll	v1,v0,0x4
80010574:	00431021 	addu	v0,v0,v1
80010578:	00021a00 	sll	v1,v0,0x8
8001057c:	00431021 	addu	v0,v0,v1
80010580:	00021c00 	sll	v1,v0,0x10
80010584:	00431021 	addu	v0,v0,v1
80010588:	00021023 	negu	v0,v0
8001058c:	00023b00 	sll	a3,v0,0xc
80010590:	00071302 	srl	v0,a3,0xc
80010594:	3c038001 	lui	v1,0x8001
80010598:	8c6375c0 	lw	v1,30144(v1)
8001059c:	0043102b 	sltu	v0,v0,v1
800105a0:	14400007 	bnez	v0,800105c0 <env_setup_vm+0xb4>
800105a4:	3c028000 	lui	v0,0x8000
800105a8:	3c048001 	lui	a0,0x8001
800105ac:	2484451c 	addiu	a0,a0,17692
800105b0:	24050030 	li	a1,48
800105b4:	3c068001 	lui	a2,0x8001
800105b8:	0c004764 	jal	80011d90 <_panic>
800105bc:	24c64530 	addiu	a2,a2,17712
800105c0:	00e23821 	addu	a3,a3,v0
800105c4:	00001821 	move	v1,zero
800105c8:	3c047f40 	lui	a0,0x7f40
800105cc:	00031582 	srl	v0,v1,0x16
800105d0:	00021080 	sll	v0,v0,0x2
800105d4:	00471021 	addu	v0,v0,a3
800105d8:	24631000 	addiu	v1,v1,4096
800105dc:	1464fffb 	bne	v1,a0,800105cc <env_setup_vm+0xc0>
800105e0:	ac400000 	sw	zero,0(v0)
800105e4:	240407f4 	li	a0,2036
800105e8:	3c068001 	lui	a2,0x8001
800105ec:	24051000 	li	a1,4096
800105f0:	00e41021 	addu	v0,a3,a0
800105f4:	8cc375c4 	lw	v1,30148(a2)
800105f8:	00831821 	addu	v1,a0,v1
800105fc:	8c630000 	lw	v1,0(v1)
80010600:	24840004 	addiu	a0,a0,4
80010604:	1485fffa 	bne	a0,a1,800105f0 <env_setup_vm+0xe4>
80010608:	ac430000 	sw	v1,0(v0)
8001060c:	ae0700b0 	sw	a3,176(s0)
80010610:	04e00007 	bltz	a3,80010630 <env_setup_vm+0x124>
80010614:	00e01021 	move	v0,a3
80010618:	3c048001 	lui	a0,0x8001
8001061c:	248444f0 	addiu	a0,a0,17648
80010620:	240500b9 	li	a1,185
80010624:	3c068001 	lui	a2,0x8001
80010628:	0c004764 	jal	80011d90 <_panic>
8001062c:	24c64554 	addiu	a2,a2,17748
80010630:	3c078000 	lui	a3,0x8000
80010634:	00473821 	addu	a3,v0,a3
80010638:	ae0700b4 	sw	a3,180(s0)
8001063c:	8e0400b0 	lw	a0,176(s0)
80010640:	24020400 	li	v0,1024
80010644:	afa20010 	sw	v0,16(sp)
80010648:	3c057fc0 	lui	a1,0x7fc0
8001064c:	0c004a9c 	jal	80012a70 <boot_map_segment>
80010650:	3c060040 	lui	a2,0x40
80010654:	8e0300b0 	lw	v1,176(s0)
80010658:	8e0200b4 	lw	v0,180(s0)
8001065c:	34420600 	ori	v0,v0,0x600
80010660:	ac6207fc 	sw	v0,2044(v1)
80010664:	00001021 	move	v0,zero
80010668:	8fbf0024 	lw	ra,36(sp)
8001066c:	8fb00020 	lw	s0,32(sp)
80010670:	03e00008 	jr	ra
80010674:	27bd0028 	addiu	sp,sp,40

80010678 <env_alloc>:
80010678:	27bdffe0 	addiu	sp,sp,-32
8001067c:	afbf001c 	sw	ra,28(sp)
80010680:	afb20018 	sw	s2,24(sp)
80010684:	afb10014 	sw	s1,20(sp)
80010688:	afb00010 	sw	s0,16(sp)
8001068c:	00809021 	move	s2,a0
80010690:	3c028001 	lui	v0,0x8001
80010694:	8c50752c 	lw	s0,29996(v0)
80010698:	16000003 	bnez	s0,800106a8 <env_alloc+0x30>
8001069c:	00a08821 	move	s1,a1
800106a0:	1000001e 	b	8001071c <env_alloc+0xa4>
800106a4:	2402fffb 	li	v0,-5
800106a8:	0c004143 	jal	8001050c <env_setup_vm>
800106ac:	02002021 	move	a0,s0
800106b0:	0440001b 	bltz	v0,80010720 <env_alloc+0xa8>
800106b4:	8fbf001c 	lw	ra,28(sp)
800106b8:	0c004090 	jal	80010240 <mkenvid>
800106bc:	02002021 	move	a0,s0
800106c0:	ae0200a4 	sw	v0,164(s0)
800106c4:	ae1100a8 	sw	s1,168(s0)
800106c8:	24020001 	li	v0,1
800106cc:	ae0200ac 	sw	v0,172(s0)
800106d0:	3c027f3f 	lui	v0,0x7f3f
800106d4:	3442e000 	ori	v0,v0,0xe000
800106d8:	ae020074 	sw	v0,116(s0)
800106dc:	3c021000 	lui	v0,0x1000
800106e0:	34421004 	ori	v0,v0,0x1004
800106e4:	ae020080 	sw	v0,128(s0)
800106e8:	ae0000c0 	sw	zero,192(s0)
800106ec:	ae0000cc 	sw	zero,204(s0)
800106f0:	ae0000d0 	sw	zero,208(s0)
800106f4:	8e03009c 	lw	v1,156(s0)
800106f8:	10600003 	beqz	v1,80010708 <env_alloc+0x90>
800106fc:	00000000 	nop
80010700:	8e0200a0 	lw	v0,160(s0)
80010704:	ac6200a0 	sw	v0,160(v1)
80010708:	8e0300a0 	lw	v1,160(s0)
8001070c:	8e02009c 	lw	v0,156(s0)
80010710:	ac620000 	sw	v0,0(v1)
80010714:	ae500000 	sw	s0,0(s2)
80010718:	00001021 	move	v0,zero
8001071c:	8fbf001c 	lw	ra,28(sp)
80010720:	8fb20018 	lw	s2,24(sp)
80010724:	8fb10014 	lw	s1,20(sp)
80010728:	8fb00010 	lw	s0,16(sp)
8001072c:	03e00008 	jr	ra
80010730:	27bd0020 	addiu	sp,sp,32

80010734 <load_icode>:
80010734:	27bdffc0 	addiu	sp,sp,-64
80010738:	afbf0038 	sw	ra,56(sp)
8001073c:	afb70034 	sw	s7,52(sp)
80010740:	afb60030 	sw	s6,48(sp)
80010744:	afb5002c 	sw	s5,44(sp)
80010748:	afb40028 	sw	s4,40(sp)
8001074c:	afb30024 	sw	s3,36(sp)
80010750:	afb20020 	sw	s2,32(sp)
80010754:	afb1001c 	sw	s1,28(sp)
80010758:	afb00018 	sw	s0,24(sp)
8001075c:	00808821 	move	s1,a0
80010760:	00c09821 	move	s3,a2
80010764:	afa00010 	sw	zero,16(sp)
80010768:	24b20017 	addiu	s2,a1,23
8001076c:	0c004ba0 	jal	80012e80 <page_alloc>
80010770:	27a40010 	addiu	a0,sp,16
80010774:	8fa20010 	lw	v0,16(sp)
80010778:	94430008 	lhu	v1,8(v0)
8001077c:	24630001 	addiu	v1,v1,1
80010780:	a4430008 	sh	v1,8(v0)
80010784:	8e2400b0 	lw	a0,176(s1)
80010788:	8fa50010 	lw	a1,16(sp)
8001078c:	3c067f3f 	lui	a2,0x7f3f
80010790:	34c6d000 	ori	a2,a2,0xd000
80010794:	0c004c4d 	jal	80013134 <page_insert>
80010798:	24070600 	li	a3,1536
8001079c:	12600031 	beqz	s3,80010864 <load_icode+0x130>
800107a0:	3c020040 	lui	v0,0x40
800107a4:	00008021 	move	s0,zero
800107a8:	3c178001 	lui	s7,0x8001
800107ac:	3c168001 	lui	s6,0x8001
800107b0:	3c158000 	lui	s5,0x8000
800107b4:	3c140040 	lui	s4,0x40
800107b8:	0c004ba0 	jal	80012e80 <page_alloc>
800107bc:	27a40010 	addiu	a0,sp,16
800107c0:	8fa30010 	lw	v1,16(sp)
800107c4:	94620008 	lhu	v0,8(v1)
800107c8:	24420001 	addiu	v0,v0,1
800107cc:	a4620008 	sh	v0,8(v1)
800107d0:	8ee275d4 	lw	v0,30164(s7)
800107d4:	8fa30010 	lw	v1,16(sp)
800107d8:	00621823 	subu	v1,v1,v0
800107dc:	00031883 	sra	v1,v1,0x2
800107e0:	00031080 	sll	v0,v1,0x2
800107e4:	00431021 	addu	v0,v0,v1
800107e8:	00021900 	sll	v1,v0,0x4
800107ec:	00431021 	addu	v0,v0,v1
800107f0:	00021a00 	sll	v1,v0,0x8
800107f4:	00431021 	addu	v0,v0,v1
800107f8:	00021c00 	sll	v1,v0,0x10
800107fc:	00431021 	addu	v0,v0,v1
80010800:	00021023 	negu	v0,v0
80010804:	00023b00 	sll	a3,v0,0xc
80010808:	00071302 	srl	v0,a3,0xc
8001080c:	8ec375c0 	lw	v1,30144(s6)
80010810:	0043102b 	sltu	v0,v0,v1
80010814:	14400007 	bnez	v0,80010834 <load_icode+0x100>
80010818:	02502021 	addu	a0,s2,s0
8001081c:	3c048001 	lui	a0,0x8001
80010820:	2484451c 	addiu	a0,a0,17692
80010824:	24050030 	li	a1,48
80010828:	3c068001 	lui	a2,0x8001
8001082c:	0c004764 	jal	80011d90 <_panic>
80010830:	24c64530 	addiu	a2,a2,17712
80010834:	00f52821 	addu	a1,a3,s5
80010838:	0c004049 	jal	80010124 <bcopy>
8001083c:	24061000 	li	a2,4096
80010840:	8e2400b0 	lw	a0,176(s1)
80010844:	8fa50010 	lw	a1,16(sp)
80010848:	02143021 	addu	a2,s0,s4
8001084c:	0c004c4d 	jal	80013134 <page_insert>
80010850:	24070600 	li	a3,1536
80010854:	26101000 	addiu	s0,s0,4096
80010858:	0213102b 	sltu	v0,s0,s3
8001085c:	1440ffd6 	bnez	v0,800107b8 <load_icode+0x84>
80010860:	3c020040 	lui	v0,0x40
80010864:	ae220098 	sw	v0,152(s1)
80010868:	8fbf0038 	lw	ra,56(sp)
8001086c:	8fb70034 	lw	s7,52(sp)
80010870:	8fb60030 	lw	s6,48(sp)
80010874:	8fb5002c 	lw	s5,44(sp)
80010878:	8fb40028 	lw	s4,40(sp)
8001087c:	8fb30024 	lw	s3,36(sp)
80010880:	8fb20020 	lw	s2,32(sp)
80010884:	8fb1001c 	lw	s1,28(sp)
80010888:	8fb00018 	lw	s0,24(sp)
8001088c:	03e00008 	jr	ra
80010890:	27bd0040 	addiu	sp,sp,64

80010894 <env_create>:
80010894:	27bdffd8 	addiu	sp,sp,-40
80010898:	afbf0020 	sw	ra,32(sp)
8001089c:	afb1001c 	sw	s1,28(sp)
800108a0:	afb00018 	sw	s0,24(sp)
800108a4:	00808021 	move	s0,a0
800108a8:	00a08821 	move	s1,a1
800108ac:	27a40010 	addiu	a0,sp,16
800108b0:	0c00419e 	jal	80010678 <env_alloc>
800108b4:	00002821 	move	a1,zero
800108b8:	8fa40010 	lw	a0,16(sp)
800108bc:	02002821 	move	a1,s0
800108c0:	0c0041cd 	jal	80010734 <load_icode>
800108c4:	02203021 	move	a2,s1
800108c8:	8fbf0020 	lw	ra,32(sp)
800108cc:	8fb1001c 	lw	s1,28(sp)
800108d0:	8fb00018 	lw	s0,24(sp)
800108d4:	03e00008 	jr	ra
800108d8:	27bd0028 	addiu	sp,sp,40

800108dc <env_free>:
800108dc:	27bdffc8 	addiu	sp,sp,-56
800108e0:	afbf0034 	sw	ra,52(sp)
800108e4:	afbe0030 	sw	s8,48(sp)
800108e8:	afb7002c 	sw	s7,44(sp)
800108ec:	afb60028 	sw	s6,40(sp)
800108f0:	afb50024 	sw	s5,36(sp)
800108f4:	afb40020 	sw	s4,32(sp)
800108f8:	afb3001c 	sw	s3,28(sp)
800108fc:	afb20018 	sw	s2,24(sp)
80010900:	afb10014 	sw	s1,20(sp)
80010904:	afb00010 	sw	s0,16(sp)
80010908:	3c028001 	lui	v0,0x8001
8001090c:	8c457524 	lw	a1,29988(v0)
80010910:	10a00002 	beqz	a1,8001091c <env_free+0x40>
80010914:	0080a021 	move	s4,a0
80010918:	8ca500a4 	lw	a1,164(a1)
8001091c:	3c048001 	lui	a0,0x8001
80010920:	24844578 	addiu	a0,a0,17784
80010924:	0c004755 	jal	80011d54 <printf>
80010928:	8e8600a4 	lw	a2,164(s4)
8001092c:	0000b821 	move	s7,zero
80010930:	0017f080 	sll	s8,s7,0x2
80010934:	8e8200b0 	lw	v0,176(s4)
80010938:	005e1021 	addu	v0,v0,s8
8001093c:	8c470000 	lw	a3,0(v0)
80010940:	30e20200 	andi	v0,a3,0x200
80010944:	10400033 	beqz	v0,80010a14 <env_free+0x138>
80010948:	2402f000 	li	v0,-4096
8001094c:	00e2b024 	and	s6,a3,v0
80010950:	0016ab02 	srl	s5,s6,0xc
80010954:	3c038001 	lui	v1,0x8001
80010958:	8c6275c0 	lw	v0,30144(v1)
8001095c:	02a2102b 	sltu	v0,s5,v0
80010960:	14400008 	bnez	v0,80010984 <env_free+0xa8>
80010964:	3c028000 	lui	v0,0x8000
80010968:	3c048001 	lui	a0,0x8001
8001096c:	248444f0 	addiu	a0,a0,17648
80010970:	2405014d 	li	a1,333
80010974:	3c068001 	lui	a2,0x8001
80010978:	24c64530 	addiu	a2,a2,17712
8001097c:	0c004764 	jal	80011d90 <_panic>
80010980:	02c03821 	move	a3,s6
80010984:	02c28021 	addu	s0,s6,v0
80010988:	00008821 	move	s1,zero
8001098c:	00179d80 	sll	s3,s7,0x16
80010990:	24120400 	li	s2,1024
80010994:	8e020000 	lw	v0,0(s0)
80010998:	30420200 	andi	v0,v0,0x200
8001099c:	10400005 	beqz	v0,800109b4 <env_free+0xd8>
800109a0:	00000000 	nop
800109a4:	00112b00 	sll	a1,s1,0xc
800109a8:	8e8400b0 	lw	a0,176(s4)
800109ac:	0c004cd8 	jal	80013360 <page_remove>
800109b0:	02652825 	or	a1,s3,a1
800109b4:	26310001 	addiu	s1,s1,1
800109b8:	1632fff6 	bne	s1,s2,80010994 <env_free+0xb8>
800109bc:	26100004 	addiu	s0,s0,4
800109c0:	8e8200b0 	lw	v0,176(s4)
800109c4:	005e1021 	addu	v0,v0,s8
800109c8:	ac400000 	sw	zero,0(v0)
800109cc:	3c038001 	lui	v1,0x8001
800109d0:	8c6275c0 	lw	v0,30144(v1)
800109d4:	02a2102b 	sltu	v0,s5,v0
800109d8:	14400008 	bnez	v0,800109fc <env_free+0x120>
800109dc:	00151080 	sll	v0,s5,0x2
800109e0:	3c048001 	lui	a0,0x8001
800109e4:	2484451c 	addiu	a0,a0,17692
800109e8:	24050029 	li	a1,41
800109ec:	3c068001 	lui	a2,0x8001
800109f0:	24c64590 	addiu	a2,a2,17808
800109f4:	0c004764 	jal	80011d90 <_panic>
800109f8:	02c03821 	move	a3,s6
800109fc:	00152100 	sll	a0,s5,0x4
80010a00:	00822023 	subu	a0,a0,v0
80010a04:	3c028001 	lui	v0,0x8001
80010a08:	8c4275d4 	lw	v0,30164(v0)
80010a0c:	0c004be2 	jal	80012f88 <page_decref>
80010a10:	00822021 	addu	a0,a0,v0
80010a14:	26f70001 	addiu	s7,s7,1
80010a18:	240201fd 	li	v0,509
80010a1c:	16e2ffc5 	bne	s7,v0,80010934 <env_free+0x58>
80010a20:	0017f080 	sll	s8,s7,0x2
80010a24:	8e8700b4 	lw	a3,180(s4)
80010a28:	ae8000b0 	sw	zero,176(s4)
80010a2c:	ae8000b4 	sw	zero,180(s4)
80010a30:	00072302 	srl	a0,a3,0xc
80010a34:	3c028001 	lui	v0,0x8001
80010a38:	8c4275c0 	lw	v0,30144(v0)
80010a3c:	0082102b 	sltu	v0,a0,v0
80010a40:	14400007 	bnez	v0,80010a60 <env_free+0x184>
80010a44:	00041080 	sll	v0,a0,0x2
80010a48:	3c048001 	lui	a0,0x8001
80010a4c:	2484451c 	addiu	a0,a0,17692
80010a50:	24050029 	li	a1,41
80010a54:	3c068001 	lui	a2,0x8001
80010a58:	0c004764 	jal	80011d90 <_panic>
80010a5c:	24c64590 	addiu	a2,a2,17808
80010a60:	00042100 	sll	a0,a0,0x4
80010a64:	00822023 	subu	a0,a0,v0
80010a68:	3c028001 	lui	v0,0x8001
80010a6c:	8c4275d4 	lw	v0,30164(v0)
80010a70:	0c004be2 	jal	80012f88 <page_decref>
80010a74:	00822021 	addu	a0,a0,v0
80010a78:	ae8000ac 	sw	zero,172(s4)
80010a7c:	3c038001 	lui	v1,0x8001
80010a80:	8c62752c 	lw	v0,29996(v1)
80010a84:	10400004 	beqz	v0,80010a98 <env_free+0x1bc>
80010a88:	ae82009c 	sw	v0,156(s4)
80010a8c:	8c63752c 	lw	v1,29996(v1)
80010a90:	2682009c 	addiu	v0,s4,156
80010a94:	ac6200a0 	sw	v0,160(v1)
80010a98:	3c028001 	lui	v0,0x8001
80010a9c:	ac54752c 	sw	s4,29996(v0)
80010aa0:	2442752c 	addiu	v0,v0,29996
80010aa4:	ae8200a0 	sw	v0,160(s4)
80010aa8:	8fbf0034 	lw	ra,52(sp)
80010aac:	8fbe0030 	lw	s8,48(sp)
80010ab0:	8fb7002c 	lw	s7,44(sp)
80010ab4:	8fb60028 	lw	s6,40(sp)
80010ab8:	8fb50024 	lw	s5,36(sp)
80010abc:	8fb40020 	lw	s4,32(sp)
80010ac0:	8fb3001c 	lw	s3,28(sp)
80010ac4:	8fb20018 	lw	s2,24(sp)
80010ac8:	8fb10014 	lw	s1,20(sp)
80010acc:	8fb00010 	lw	s0,16(sp)
80010ad0:	03e00008 	jr	ra
80010ad4:	27bd0038 	addiu	sp,sp,56

80010ad8 <env_destroy>:
80010ad8:	27bdffe8 	addiu	sp,sp,-24
80010adc:	afbf0014 	sw	ra,20(sp)
80010ae0:	afb00010 	sw	s0,16(sp)
80010ae4:	0c004237 	jal	800108dc <env_free>
80010ae8:	00808021 	move	s0,a0
80010aec:	3c038001 	lui	v1,0x8001
80010af0:	8c627524 	lw	v0,29988(v1)
80010af4:	1602000f 	bne	s0,v0,80010b34 <env_destroy+0x5c>
80010af8:	8fbf0014 	lw	ra,20(sp)
80010afc:	ac607524 	sw	zero,29988(v1)
80010b00:	3c028001 	lui	v0,0x8001
80010b04:	8c447500 	lw	a0,29952(v0)
80010b08:	2484ff64 	addiu	a0,a0,-156
80010b0c:	3c0581ff 	lui	a1,0x81ff
80010b10:	34a5ff64 	ori	a1,a1,0xff64
80010b14:	0c004049 	jal	80010124 <bcopy>
80010b18:	2406009c 	li	a2,156
80010b1c:	3c048001 	lui	a0,0x8001
80010b20:	0c004755 	jal	80011d54 <printf>
80010b24:	248445b4 	addiu	a0,a0,17844
80010b28:	0c004780 	jal	80011e00 <sched_yield>
80010b2c:	00000000 	nop
80010b30:	8fbf0014 	lw	ra,20(sp)
80010b34:	8fb00010 	lw	s0,16(sp)
80010b38:	03e00008 	jr	ra
80010b3c:	27bd0018 	addiu	sp,sp,24

80010b40 <env_run>:
80010b40:	27bdffe0 	addiu	sp,sp,-32
80010b44:	afbf001c 	sw	ra,28(sp)
80010b48:	afb20018 	sw	s2,24(sp)
80010b4c:	afb10014 	sw	s1,20(sp)
80010b50:	afb00010 	sw	s0,16(sp)
80010b54:	3c118001 	lui	s1,0x8001
80010b58:	8e257524 	lw	a1,29988(s1)
80010b5c:	10a00009 	beqz	a1,80010b84 <env_run+0x44>
80010b60:	00809021 	move	s2,a0
80010b64:	3c1081ff 	lui	s0,0x81ff
80010b68:	3604ff64 	ori	a0,s0,0xff64
80010b6c:	0c004049 	jal	80010124 <bcopy>
80010b70:	2406009c 	li	a2,156
80010b74:	3610ff64 	ori	s0,s0,0xff64
80010b78:	8e030094 	lw	v1,148(s0)
80010b7c:	8e227524 	lw	v0,29988(s1)
80010b80:	ac430098 	sw	v1,152(v0)
80010b84:	3c028001 	lui	v0,0x8001
80010b88:	ac527524 	sw	s2,29988(v0)
80010b8c:	8e4700b4 	lw	a3,180(s2)
80010b90:	00071302 	srl	v0,a3,0xc
80010b94:	3c038001 	lui	v1,0x8001
80010b98:	8c6375c0 	lw	v1,30144(v1)
80010b9c:	0043102b 	sltu	v0,v0,v1
80010ba0:	14400007 	bnez	v0,80010bc0 <env_run+0x80>
80010ba4:	00000000 	nop
80010ba8:	3c048001 	lui	a0,0x8001
80010bac:	248444f0 	addiu	a0,a0,17648
80010bb0:	24050192 	li	a1,402
80010bb4:	3c068001 	lui	a2,0x8001
80010bb8:	0c004764 	jal	80011d90 <_panic>
80010bbc:	24c64530 	addiu	a2,a2,17712
80010bc0:	3c048000 	lui	a0,0x8000
80010bc4:	0c004331 	jal	80010cc4 <lcontext>
80010bc8:	00e42021 	addu	a0,a3,a0
80010bcc:	3c028001 	lui	v0,0x8001
80010bd0:	8c447524 	lw	a0,29988(v0)
80010bd4:	8c8500a4 	lw	a1,164(a0)
80010bd8:	00052ac2 	srl	a1,a1,0xb
80010bdc:	0c004300 	jal	80010c00 <env_pop_tf>
80010be0:	00052980 	sll	a1,a1,0x6
80010be4:	3c048001 	lui	a0,0x8001
80010be8:	248444f0 	addiu	a0,a0,17648
80010bec:	2405019c 	li	a1,412
80010bf0:	3c068001 	lui	a2,0x8001
80010bf4:	0c004764 	jal	80011d90 <_panic>
80010bf8:	24c645c8 	addiu	a2,a2,17864
80010bfc:	00000000 	nop

80010c00 <env_pop_tf>:
80010c00:	00000000 	nop
80010c04:	0080d021 	move	k0,a0
80010c08:	40855000 	mtc0	a1,c0_entryhi
80010c0c:	40086000 	mfc0	t0,c0_status
80010c10:	35080003 	ori	t0,t0,0x3
80010c14:	39080003 	xori	t0,t0,0x3
80010c18:	40886000 	mtc0	t0,c0_status
80010c1c:	8f430088 	lw	v1,136(k0)
80010c20:	00600013 	mtlo	v1
80010c24:	8f420084 	lw	v0,132(k0)
80010c28:	8f430094 	lw	v1,148(k0)
80010c2c:	00400011 	mthi	v0
80010c30:	40837000 	mtc0	v1,c0_epc
80010c34:	8f5f007c 	lw	ra,124(k0)
80010c38:	8f5e0078 	lw	s8,120(k0)
80010c3c:	8f5d0074 	lw	sp,116(k0)
80010c40:	8f5c0070 	lw	gp,112(k0)
80010c44:	8f590064 	lw	t9,100(k0)
80010c48:	8f580060 	lw	t8,96(k0)
80010c4c:	8f57005c 	lw	s7,92(k0)
80010c50:	8f560058 	lw	s6,88(k0)
80010c54:	8f550054 	lw	s5,84(k0)
80010c58:	8f540050 	lw	s4,80(k0)
80010c5c:	8f53004c 	lw	s3,76(k0)
80010c60:	8f520048 	lw	s2,72(k0)
80010c64:	8f510044 	lw	s1,68(k0)
80010c68:	8f500040 	lw	s0,64(k0)
80010c6c:	8f4f003c 	lw	t7,60(k0)
80010c70:	8f4e0038 	lw	t6,56(k0)
80010c74:	8f4d0034 	lw	t5,52(k0)
80010c78:	8f4c0030 	lw	t4,48(k0)
80010c7c:	8f4b002c 	lw	t3,44(k0)
80010c80:	8f4a0028 	lw	t2,40(k0)
80010c84:	8f490024 	lw	t1,36(k0)
80010c88:	8f480020 	lw	t0,32(k0)
80010c8c:	8f47001c 	lw	a3,28(k0)
80010c90:	8f460018 	lw	a2,24(k0)
80010c94:	8f450014 	lw	a1,20(k0)
80010c98:	8f440010 	lw	a0,16(k0)
80010c9c:	8f43000c 	lw	v1,12(k0)
80010ca0:	8f420008 	lw	v0,8(k0)
80010ca4:	8f410004 	lw	at,4(k0)
80010ca8:	8f5b0098 	lw	k1,152(k0)
80010cac:	8f5a0080 	lw	k0,128(k0)
80010cb0:	00000000 	nop
80010cb4:	409a6000 	mtc0	k0,c0_status
80010cb8:	03600008 	jr	k1
80010cbc:	42000010 	rfe
80010cc0:	00000000 	nop

80010cc4 <lcontext>:
80010cc4:	3c018001 	lui	at,0x8001
80010cc8:	ac244b80 	sw	a0,19328(at)
80010ccc:	03e00008 	jr	ra
80010cd0:	00000000 	nop
	...

80010ce0 <ret_from_exception>:
80010ce0:	40086000 	mfc0	t0,c0_status
80010ce4:	35080003 	ori	t0,t0,0x3
80010ce8:	39080003 	xori	t0,t0,0x3
80010cec:	40886000 	mtc0	t0,c0_status
80010cf0:	8fa20080 	lw	v0,128(sp)
80010cf4:	3403ff00 	li	v1,0xff00
80010cf8:	01034024 	and	t0,t0,v1
80010cfc:	00031827 	nor	v1,zero,v1
80010d00:	00431024 	and	v0,v0,v1
80010d04:	00481025 	or	v0,v0,t0
80010d08:	40826000 	mtc0	v0,c0_status
80010d0c:	8fa30088 	lw	v1,136(sp)
80010d10:	00600013 	mtlo	v1
80010d14:	8fa20084 	lw	v0,132(sp)
80010d18:	8fa30094 	lw	v1,148(sp)
80010d1c:	00400011 	mthi	v0
80010d20:	40837000 	mtc0	v1,c0_epc
80010d24:	8fbf007c 	lw	ra,124(sp)
80010d28:	8fbe0078 	lw	s8,120(sp)
80010d2c:	8fbc0070 	lw	gp,112(sp)
80010d30:	8fb90064 	lw	t9,100(sp)
80010d34:	8fb80060 	lw	t8,96(sp)
80010d38:	8fb7005c 	lw	s7,92(sp)
80010d3c:	8fb60058 	lw	s6,88(sp)
80010d40:	8fb50054 	lw	s5,84(sp)
80010d44:	8fb40050 	lw	s4,80(sp)
80010d48:	8fb3004c 	lw	s3,76(sp)
80010d4c:	8fb20048 	lw	s2,72(sp)
80010d50:	8fb10044 	lw	s1,68(sp)
80010d54:	8fb00040 	lw	s0,64(sp)
80010d58:	8faf003c 	lw	t7,60(sp)
80010d5c:	8fae0038 	lw	t6,56(sp)
80010d60:	8fad0034 	lw	t5,52(sp)
80010d64:	8fac0030 	lw	t4,48(sp)
80010d68:	8fab002c 	lw	t3,44(sp)
80010d6c:	8faa0028 	lw	t2,40(sp)
80010d70:	8fa90024 	lw	t1,36(sp)
80010d74:	8fa80020 	lw	t0,32(sp)
80010d78:	8fa7001c 	lw	a3,28(sp)
80010d7c:	8fa60018 	lw	a2,24(sp)
80010d80:	8fa50014 	lw	a1,20(sp)
80010d84:	8fa40010 	lw	a0,16(sp)
80010d88:	8fa3000c 	lw	v1,12(sp)
80010d8c:	8fa20008 	lw	v0,8(sp)
80010d90:	8fa10004 	lw	at,4(sp)
80010d94:	8fba0094 	lw	k0,148(sp)
80010d98:	8fbd0074 	lw	sp,116(sp)
80010d9c:	00000000 	nop
80010da0:	03400008 	jr	k0
80010da4:	42000010 	rfe
	...

80010dc0 <handle_int>:
80010dc0:	00000000 	nop
80010dc4:	401a6000 	mfc0	k0,c0_status
80010dc8:	001ad0c0 	sll	k0,k0,0x3
80010dcc:	07400001 	bltz	k0,80010dd4 <handle_int+0x14>
80010dd0:	00000000 	nop
80010dd4:	03a0d021 	move	k0,sp
80010dd8:	401b6800 	mfc0	k1,c0_cause
80010ddc:	337b107c 	andi	k1,k1,0x107c
80010de0:	3b7b1000 	xori	k1,k1,0x1000
80010de4:	17600004 	bnez	k1,80010df8 <handle_int+0x38>
80010de8:	00000000 	nop
80010dec:	3c1d8200 	lui	sp,0x8200
80010df0:	08004383 	j	80010e0c <handle_int+0x4c>
80010df4:	00000000 	nop
80010df8:	07a00004 	bltz	sp,80010e0c <handle_int+0x4c>
80010dfc:	00000000 	nop
80010e00:	3c1d8001 	lui	sp,0x8001
80010e04:	8fbd7500 	lw	sp,29952(sp)
	...
80010e10:	03a0d821 	move	k1,sp
80010e14:	277dff64 	addiu	sp,k1,-156
80010e18:	afba0074 	sw	k0,116(sp)
80010e1c:	afa20008 	sw	v0,8(sp)
80010e20:	40026000 	mfc0	v0,c0_status
80010e24:	afa20080 	sw	v0,128(sp)
80010e28:	40026800 	mfc0	v0,c0_cause
80010e2c:	afa20090 	sw	v0,144(sp)
80010e30:	40027000 	mfc0	v0,c0_epc
80010e34:	afa20094 	sw	v0,148(sp)
80010e38:	40024000 	mfc0	v0,c0_badvaddr
80010e3c:	afa2008c 	sw	v0,140(sp)
80010e40:	00001010 	mfhi	v0
80010e44:	afa20084 	sw	v0,132(sp)
80010e48:	00001012 	mflo	v0
80010e4c:	afa20088 	sw	v0,136(sp)
80010e50:	afa00000 	sw	zero,0(sp)
80010e54:	afa10004 	sw	at,4(sp)
80010e58:	afa3000c 	sw	v1,12(sp)
80010e5c:	afa40010 	sw	a0,16(sp)
80010e60:	afa50014 	sw	a1,20(sp)
80010e64:	afa60018 	sw	a2,24(sp)
80010e68:	afa7001c 	sw	a3,28(sp)
80010e6c:	afa80020 	sw	t0,32(sp)
80010e70:	afa90024 	sw	t1,36(sp)
80010e74:	afaa0028 	sw	t2,40(sp)
80010e78:	afab002c 	sw	t3,44(sp)
80010e7c:	afac0030 	sw	t4,48(sp)
80010e80:	afad0034 	sw	t5,52(sp)
80010e84:	afae0038 	sw	t6,56(sp)
80010e88:	afaf003c 	sw	t7,60(sp)
80010e8c:	afb00040 	sw	s0,64(sp)
80010e90:	afb10044 	sw	s1,68(sp)
80010e94:	afb20048 	sw	s2,72(sp)
80010e98:	afb3004c 	sw	s3,76(sp)
80010e9c:	afb40050 	sw	s4,80(sp)
80010ea0:	afb50054 	sw	s5,84(sp)
80010ea4:	afb60058 	sw	s6,88(sp)
80010ea8:	afb7005c 	sw	s7,92(sp)
80010eac:	afb80060 	sw	t8,96(sp)
80010eb0:	afb90064 	sw	t9,100(sp)
80010eb4:	afba0068 	sw	k0,104(sp)
80010eb8:	afbb006c 	sw	k1,108(sp)
80010ebc:	afbc0070 	sw	gp,112(sp)
80010ec0:	afbe0078 	sw	s8,120(sp)
80010ec4:	afbf007c 	sw	ra,124(sp)
80010ec8:	40086000 	mfc0	t0,c0_status
80010ecc:	3c091000 	lui	t1,0x1000
80010ed0:	35290001 	ori	t1,t1,0x1
80010ed4:	01094025 	or	t0,t0,t1
80010ed8:	39080001 	xori	t0,t0,0x1
80010edc:	40886000 	mtc0	t0,c0_status
80010ee0:	40086800 	mfc0	t0,c0_cause
80010ee4:	400a6000 	mfc0	t2,c0_status
80010ee8:	010a4024 	and	t0,t0,t2
80010eec:	31091000 	andi	t1,t0,0x1000
80010ef0:	15200001 	bnez	t1,80010ef8 <timer_irq>
80010ef4:	00000000 	nop

80010ef8 <timer_irq>:
80010ef8:	08004780 	j	80011e00 <sched_yield>
80010efc:	00000000 	nop
80010f00:	08004338 	j	80010ce0 <ret_from_exception>
80010f04:	00000000 	nop

80010f08 <do_refill>:
80010f08:	00000000 	nop
80010f0c:	3c1b8001 	lui	k1,0x8001
80010f10:	8f7b4b80 	lw	k1,19328(k1)
80010f14:	2401f000 	li	at,-4096
80010f18:	0361d824 	and	k1,k1,at
80010f1c:	401a4000 	mfc0	k0,c0_badvaddr
80010f20:	001ad502 	srl	k0,k0,0x14
80010f24:	2401fffc 	li	at,-4
80010f28:	0341d024 	and	k0,k0,at
80010f2c:	035bd021 	addu	k0,k0,k1
80010f30:	8f5b0000 	lw	k1,0(k0)
80010f34:	00000000 	nop
80010f38:	03604021 	move	t0,k1
80010f3c:	31080200 	andi	t0,t0,0x200
80010f40:	1100001c 	beqz	t0,80010fb4 <NOPAGE>
80010f44:	00000000 	nop
80010f48:	2401f000 	li	at,-4096
80010f4c:	0361d824 	and	k1,k1,at
80010f50:	401a4000 	mfc0	k0,c0_badvaddr
80010f54:	001ad282 	srl	k0,k0,0xa
80010f58:	2401fffc 	li	at,-4
80010f5c:	0341d024 	and	k0,k0,at
80010f60:	335a0fff 	andi	k0,k0,0xfff
80010f64:	035bd021 	addu	k0,k0,k1
80010f68:	3c018000 	lui	at,0x8000
80010f6c:	0341d025 	or	k0,k0,at
80010f70:	8f5b0000 	lw	k1,0(k0)
80010f74:	00000000 	nop
80010f78:	03604021 	move	t0,k1
80010f7c:	31080200 	andi	t0,t0,0x200
80010f80:	1100000c 	beqz	t0,80010fb4 <NOPAGE>
80010f84:	00000000 	nop
80010f88:	0360d021 	move	k0,k1
80010f8c:	335a0001 	andi	k0,k0,0x1
80010f90:	13400003 	beqz	k0,80010fa0 <NoCOW>
80010f94:	00000000 	nop
80010f98:	2401fbff 	li	at,-1025
80010f9c:	0361d824 	and	k1,k1,at

80010fa0 <NoCOW>:
80010fa0:	409b1000 	mtc0	k1,c0_entrylo0
80010fa4:	00000000 	nop
80010fa8:	42000006 	tlbwr
80010fac:	080043fb 	j	80010fec <NOPAGE+0x38>
80010fb0:	00000000 	nop

80010fb4 <NOPAGE>:
80010fb4:	00000000 	nop
80010fb8:	40044000 	mfc0	a0,c0_badvaddr
80010fbc:	3c058001 	lui	a1,0x8001
80010fc0:	8ca54b80 	lw	a1,19328(a1)
80010fc4:	00000000 	nop
80010fc8:	3c018001 	lui	at,0x8001
80010fcc:	ac3f4b88 	sw	ra,19336(at)
80010fd0:	0c00503b 	jal	800140ec <pageout>
80010fd4:	00000000 	nop
80010fd8:	00000000 	nop
80010fdc:	3c1f8001 	lui	ra,0x8001
80010fe0:	8fff4b88 	lw	ra,19336(ra)
80010fe4:	00000000 	nop
80010fe8:	080043c2 	j	80010f08 <do_refill>
80010fec:	00000000 	nop
80010ff0:	03e00008 	jr	ra
80010ff4:	00000000 	nop
	...

80011000 <handle_reserved>:
80011000:	00000000 	nop
80011004:	401a6000 	mfc0	k0,c0_status
80011008:	001ad0c0 	sll	k0,k0,0x3
8001100c:	07400001 	bltz	k0,80011014 <handle_reserved+0x14>
80011010:	00000000 	nop
80011014:	03a0d021 	move	k0,sp
80011018:	401b6800 	mfc0	k1,c0_cause
8001101c:	337b107c 	andi	k1,k1,0x107c
80011020:	3b7b1000 	xori	k1,k1,0x1000
80011024:	17600004 	bnez	k1,80011038 <handle_reserved+0x38>
80011028:	00000000 	nop
8001102c:	3c1d8200 	lui	sp,0x8200
80011030:	08004413 	j	8001104c <handle_reserved+0x4c>
80011034:	00000000 	nop
80011038:	07a00004 	bltz	sp,8001104c <handle_reserved+0x4c>
8001103c:	00000000 	nop
80011040:	3c1d8001 	lui	sp,0x8001
80011044:	8fbd7500 	lw	sp,29952(sp)
	...
80011050:	03a0d821 	move	k1,sp
80011054:	277dff64 	addiu	sp,k1,-156
80011058:	afba0074 	sw	k0,116(sp)
8001105c:	afa20008 	sw	v0,8(sp)
80011060:	40026000 	mfc0	v0,c0_status
80011064:	afa20080 	sw	v0,128(sp)
80011068:	40026800 	mfc0	v0,c0_cause
8001106c:	afa20090 	sw	v0,144(sp)
80011070:	40027000 	mfc0	v0,c0_epc
80011074:	afa20094 	sw	v0,148(sp)
80011078:	40024000 	mfc0	v0,c0_badvaddr
8001107c:	afa2008c 	sw	v0,140(sp)
80011080:	00001010 	mfhi	v0
80011084:	afa20084 	sw	v0,132(sp)
80011088:	00001012 	mflo	v0
8001108c:	afa20088 	sw	v0,136(sp)
80011090:	afa00000 	sw	zero,0(sp)
80011094:	afa10004 	sw	at,4(sp)
80011098:	afa3000c 	sw	v1,12(sp)
8001109c:	afa40010 	sw	a0,16(sp)
800110a0:	afa50014 	sw	a1,20(sp)
800110a4:	afa60018 	sw	a2,24(sp)
800110a8:	afa7001c 	sw	a3,28(sp)
800110ac:	afa80020 	sw	t0,32(sp)
800110b0:	afa90024 	sw	t1,36(sp)
800110b4:	afaa0028 	sw	t2,40(sp)
800110b8:	afab002c 	sw	t3,44(sp)
800110bc:	afac0030 	sw	t4,48(sp)
800110c0:	afad0034 	sw	t5,52(sp)
800110c4:	afae0038 	sw	t6,56(sp)
800110c8:	afaf003c 	sw	t7,60(sp)
800110cc:	afb00040 	sw	s0,64(sp)
800110d0:	afb10044 	sw	s1,68(sp)
800110d4:	afb20048 	sw	s2,72(sp)
800110d8:	afb3004c 	sw	s3,76(sp)
800110dc:	afb40050 	sw	s4,80(sp)
800110e0:	afb50054 	sw	s5,84(sp)
800110e4:	afb60058 	sw	s6,88(sp)
800110e8:	afb7005c 	sw	s7,92(sp)
800110ec:	afb80060 	sw	t8,96(sp)
800110f0:	afb90064 	sw	t9,100(sp)
800110f4:	afba0068 	sw	k0,104(sp)
800110f8:	afbb006c 	sw	k1,108(sp)
800110fc:	afbc0070 	sw	gp,112(sp)
80011100:	afbe0078 	sw	s8,120(sp)
80011104:	afbf007c 	sw	ra,124(sp)
80011108:	40086000 	mfc0	t0,c0_status
8001110c:	3c091000 	lui	t1,0x1000
80011110:	35290001 	ori	t1,t1,0x1
80011114:	01094025 	or	t0,t0,t1
80011118:	39080001 	xori	t0,t0,0x1
8001111c:	40886000 	mtc0	t0,c0_status
80011120:	03a02021 	move	a0,sp
80011124:	0c0043c2 	jal	80010f08 <do_refill>
80011128:	00000000 	nop
8001112c:	08004338 	j	80010ce0 <ret_from_exception>
80011130:	00000000 	nop
	...

80011140 <handle_tlb>:
80011140:	00000000 	nop
80011144:	401a6000 	mfc0	k0,c0_status
80011148:	001ad0c0 	sll	k0,k0,0x3
8001114c:	07400001 	bltz	k0,80011154 <handle_tlb+0x14>
80011150:	00000000 	nop
80011154:	03a0d021 	move	k0,sp
80011158:	401b6800 	mfc0	k1,c0_cause
8001115c:	337b107c 	andi	k1,k1,0x107c
80011160:	3b7b1000 	xori	k1,k1,0x1000
80011164:	17600004 	bnez	k1,80011178 <handle_tlb+0x38>
80011168:	00000000 	nop
8001116c:	3c1d8200 	lui	sp,0x8200
80011170:	08004463 	j	8001118c <handle_tlb+0x4c>
80011174:	00000000 	nop
80011178:	07a00004 	bltz	sp,8001118c <handle_tlb+0x4c>
8001117c:	00000000 	nop
80011180:	3c1d8001 	lui	sp,0x8001
80011184:	8fbd7500 	lw	sp,29952(sp)
	...
80011190:	03a0d821 	move	k1,sp
80011194:	277dff64 	addiu	sp,k1,-156
80011198:	afba0074 	sw	k0,116(sp)
8001119c:	afa20008 	sw	v0,8(sp)
800111a0:	40026000 	mfc0	v0,c0_status
800111a4:	afa20080 	sw	v0,128(sp)
800111a8:	40026800 	mfc0	v0,c0_cause
800111ac:	afa20090 	sw	v0,144(sp)
800111b0:	40027000 	mfc0	v0,c0_epc
800111b4:	afa20094 	sw	v0,148(sp)
800111b8:	40024000 	mfc0	v0,c0_badvaddr
800111bc:	afa2008c 	sw	v0,140(sp)
800111c0:	00001010 	mfhi	v0
800111c4:	afa20084 	sw	v0,132(sp)
800111c8:	00001012 	mflo	v0
800111cc:	afa20088 	sw	v0,136(sp)
800111d0:	afa00000 	sw	zero,0(sp)
800111d4:	afa10004 	sw	at,4(sp)
800111d8:	afa3000c 	sw	v1,12(sp)
800111dc:	afa40010 	sw	a0,16(sp)
800111e0:	afa50014 	sw	a1,20(sp)
800111e4:	afa60018 	sw	a2,24(sp)
800111e8:	afa7001c 	sw	a3,28(sp)
800111ec:	afa80020 	sw	t0,32(sp)
800111f0:	afa90024 	sw	t1,36(sp)
800111f4:	afaa0028 	sw	t2,40(sp)
800111f8:	afab002c 	sw	t3,44(sp)
800111fc:	afac0030 	sw	t4,48(sp)
80011200:	afad0034 	sw	t5,52(sp)
80011204:	afae0038 	sw	t6,56(sp)
80011208:	afaf003c 	sw	t7,60(sp)
8001120c:	afb00040 	sw	s0,64(sp)
80011210:	afb10044 	sw	s1,68(sp)
80011214:	afb20048 	sw	s2,72(sp)
80011218:	afb3004c 	sw	s3,76(sp)
8001121c:	afb40050 	sw	s4,80(sp)
80011220:	afb50054 	sw	s5,84(sp)
80011224:	afb60058 	sw	s6,88(sp)
80011228:	afb7005c 	sw	s7,92(sp)
8001122c:	afb80060 	sw	t8,96(sp)
80011230:	afb90064 	sw	t9,100(sp)
80011234:	afba0068 	sw	k0,104(sp)
80011238:	afbb006c 	sw	k1,108(sp)
8001123c:	afbc0070 	sw	gp,112(sp)
80011240:	afbe0078 	sw	s8,120(sp)
80011244:	afbf007c 	sw	ra,124(sp)
80011248:	40086000 	mfc0	t0,c0_status
8001124c:	3c091000 	lui	t1,0x1000
80011250:	35290001 	ori	t1,t1,0x1
80011254:	01094025 	or	t0,t0,t1
80011258:	39080001 	xori	t0,t0,0x1
8001125c:	40886000 	mtc0	t0,c0_status
80011260:	03a02021 	move	a0,sp
80011264:	0c0043c2 	jal	80010f08 <do_refill>
80011268:	00000000 	nop
8001126c:	08004338 	j	80010ce0 <ret_from_exception>
80011270:	00000000 	nop
	...

80011280 <handle_mod>:
80011280:	00000000 	nop
80011284:	401a6000 	mfc0	k0,c0_status
80011288:	001ad0c0 	sll	k0,k0,0x3
8001128c:	07400001 	bltz	k0,80011294 <handle_mod+0x14>
80011290:	00000000 	nop
80011294:	03a0d021 	move	k0,sp
80011298:	401b6800 	mfc0	k1,c0_cause
8001129c:	337b107c 	andi	k1,k1,0x107c
800112a0:	3b7b1000 	xori	k1,k1,0x1000
800112a4:	17600004 	bnez	k1,800112b8 <handle_mod+0x38>
800112a8:	00000000 	nop
800112ac:	3c1d8200 	lui	sp,0x8200
800112b0:	080044b3 	j	800112cc <handle_mod+0x4c>
800112b4:	00000000 	nop
800112b8:	07a00004 	bltz	sp,800112cc <handle_mod+0x4c>
800112bc:	00000000 	nop
800112c0:	3c1d8001 	lui	sp,0x8001
800112c4:	8fbd7500 	lw	sp,29952(sp)
	...
800112d0:	03a0d821 	move	k1,sp
800112d4:	277dff64 	addiu	sp,k1,-156
800112d8:	afba0074 	sw	k0,116(sp)
800112dc:	afa20008 	sw	v0,8(sp)
800112e0:	40026000 	mfc0	v0,c0_status
800112e4:	afa20080 	sw	v0,128(sp)
800112e8:	40026800 	mfc0	v0,c0_cause
800112ec:	afa20090 	sw	v0,144(sp)
800112f0:	40027000 	mfc0	v0,c0_epc
800112f4:	afa20094 	sw	v0,148(sp)
800112f8:	40024000 	mfc0	v0,c0_badvaddr
800112fc:	afa2008c 	sw	v0,140(sp)
80011300:	00001010 	mfhi	v0
80011304:	afa20084 	sw	v0,132(sp)
80011308:	00001012 	mflo	v0
8001130c:	afa20088 	sw	v0,136(sp)
80011310:	afa00000 	sw	zero,0(sp)
80011314:	afa10004 	sw	at,4(sp)
80011318:	afa3000c 	sw	v1,12(sp)
8001131c:	afa40010 	sw	a0,16(sp)
80011320:	afa50014 	sw	a1,20(sp)
80011324:	afa60018 	sw	a2,24(sp)
80011328:	afa7001c 	sw	a3,28(sp)
8001132c:	afa80020 	sw	t0,32(sp)
80011330:	afa90024 	sw	t1,36(sp)
80011334:	afaa0028 	sw	t2,40(sp)
80011338:	afab002c 	sw	t3,44(sp)
8001133c:	afac0030 	sw	t4,48(sp)
80011340:	afad0034 	sw	t5,52(sp)
80011344:	afae0038 	sw	t6,56(sp)
80011348:	afaf003c 	sw	t7,60(sp)
8001134c:	afb00040 	sw	s0,64(sp)
80011350:	afb10044 	sw	s1,68(sp)
80011354:	afb20048 	sw	s2,72(sp)
80011358:	afb3004c 	sw	s3,76(sp)
8001135c:	afb40050 	sw	s4,80(sp)
80011360:	afb50054 	sw	s5,84(sp)
80011364:	afb60058 	sw	s6,88(sp)
80011368:	afb7005c 	sw	s7,92(sp)
8001136c:	afb80060 	sw	t8,96(sp)
80011370:	afb90064 	sw	t9,100(sp)
80011374:	afba0068 	sw	k0,104(sp)
80011378:	afbb006c 	sw	k1,108(sp)
8001137c:	afbc0070 	sw	gp,112(sp)
80011380:	afbe0078 	sw	s8,120(sp)
80011384:	afbf007c 	sw	ra,124(sp)
80011388:	40086000 	mfc0	t0,c0_status
8001138c:	3c091000 	lui	t1,0x1000
80011390:	35290001 	ori	t1,t1,0x1
80011394:	01094025 	or	t0,t0,t1
80011398:	39080001 	xori	t0,t0,0x1
8001139c:	40886000 	mtc0	t0,c0_status
800113a0:	03a02021 	move	a0,sp
800113a4:	0c0049e2 	jal	80012788 <page_fault_handler>
800113a8:	00000000 	nop
800113ac:	08004338 	j	80010ce0 <ret_from_exception>
800113b0:	00000000 	nop
	...

800113c0 <sys_cgetc>:
800113c0:	3c089000 	lui	t0,0x9000
800113c4:	81080000 	lb	t0,0(t0)
800113c8:	1100fffd 	beqz	t0,800113c0 <sys_cgetc>
800113cc:	00000000 	nop
800113d0:	01001021 	move	v0,t0
800113d4:	03e00008 	jr	ra
800113d8:	00000000 	nop
800113dc:	00000000 	nop

800113e0 <kclock_init>:
800113e0:	27bdffe8 	addiu	sp,sp,-24
800113e4:	afbf0010 	sw	ra,16(sp)
800113e8:	0c004500 	jal	80011400 <set_timer>
800113ec:	00000000 	nop
800113f0:	8fbf0010 	lw	ra,16(sp)
800113f4:	03e00008 	jr	ra
800113f8:	27bd0018 	addiu	sp,sp,24
800113fc:	00000000 	nop

80011400 <set_timer>:
80011400:	24080001 	li	t0,1
80011404:	3c01b500 	lui	at,0xb500
80011408:	a0280100 	sb	t0,256(at)
8001140c:	3c018001 	lui	at,0x8001
80011410:	ac3d7500 	sw	sp,29952(at)
80011414:	40086000 	mfc0	t0,c0_status
80011418:	3c011000 	lui	at,0x1000
8001141c:	34211001 	ori	at,at,0x1001
80011420:	01014025 	or	t0,t0,at
80011424:	39080000 	xori	t0,t0,0x0
80011428:	03e00008 	jr	ra
8001142c:	40886000 	mtc0	t0,c0_status
	...

80011440 <lp_Print>:
80011440:	27bdfbe0 	addiu	sp,sp,-1056
80011444:	afbf041c 	sw	ra,1052(sp)
80011448:	afb40418 	sw	s4,1048(sp)
8001144c:	afb30414 	sw	s3,1044(sp)
80011450:	afb20410 	sw	s2,1040(sp)
80011454:	afb1040c 	sw	s1,1036(sp)
80011458:	afb00408 	sw	s0,1032(sp)
8001145c:	00809821 	move	s3,a0
80011460:	00a0a021 	move	s4,a1
80011464:	00c02821 	move	a1,a2
80011468:	00e09021 	move	s2,a3
8001146c:	80a30000 	lb	v1,0(a1)
80011470:	1060000c 	beqz	v1,800114a4 <lp_Print+0x64>
80011474:	00a08021 	move	s0,a1
80011478:	10000148 	b	8001199c <lp_Print+0x55c>
8001147c:	24020025 	li	v0,37
80011480:	00a08021 	move	s0,a1
80011484:	26100001 	addiu	s0,s0,1
80011488:	82020000 	lb	v0,0(s0)
8001148c:	10400006 	beqz	v0,800114a8 <lp_Print+0x68>
80011490:	02053023 	subu	a2,s0,a1
80011494:	10430005 	beq	v0,v1,800114ac <lp_Print+0x6c>
80011498:	2cc203e9 	sltiu	v0,a2,1001
8001149c:	1000fffa 	b	80011488 <lp_Print+0x48>
800114a0:	26100001 	addiu	s0,s0,1
800114a4:	02053023 	subu	a2,s0,a1
800114a8:	2cc203e9 	sltiu	v0,a2,1001
800114ac:	14400007 	bnez	v0,800114cc <lp_Print+0x8c>
800114b0:	02802021 	move	a0,s4
800114b4:	3c058001 	lui	a1,0x8001
800114b8:	24a54220 	addiu	a1,a1,16928
800114bc:	0260f809 	jalr	s3
800114c0:	24060018 	li	a2,24
800114c4:	1000ffff 	b	800114c4 <lp_Print+0x84>
800114c8:	00000000 	nop
800114cc:	0260f809 	jalr	s3
800114d0:	02802021 	move	a0,s4
800114d4:	82020000 	lb	v0,0(s0)
800114d8:	10400123 	beqz	v0,80011968 <lp_Print+0x528>
800114dc:	2402006c 	li	v0,108
800114e0:	82030001 	lb	v1,1(s0)
800114e4:	10620003 	beq	v1,v0,800114f4 <lp_Print+0xb4>
800114e8:	26110001 	addiu	s1,s0,1
800114ec:	10000003 	b	800114fc <lp_Print+0xbc>
800114f0:	00002021 	move	a0,zero
800114f4:	26110002 	addiu	s1,s0,2
800114f8:	24040001 	li	a0,1
800114fc:	82230000 	lb	v1,0(s1)
80011500:	2402002d 	li	v0,45
80011504:	14620004 	bne	v1,v0,80011518 <lp_Print+0xd8>
80011508:	00003821 	move	a3,zero
8001150c:	26310001 	addiu	s1,s1,1
80011510:	24070001 	li	a3,1
80011514:	82230000 	lb	v1,0(s1)
80011518:	24020030 	li	v0,48
8001151c:	14620003 	bne	v1,v0,8001152c <lp_Print+0xec>
80011520:	24090020 	li	t1,32
80011524:	26310001 	addiu	s1,s1,1
80011528:	24090030 	li	t1,48
8001152c:	82260000 	lb	a2,0(s1)
80011530:	24c2ffd0 	addiu	v0,a2,-48
80011534:	304200ff 	andi	v0,v0,0xff
80011538:	2c42000a 	sltiu	v0,v0,10
8001153c:	1040000d 	beqz	v0,80011574 <lp_Print+0x134>
80011540:	00004021 	move	t0,zero
80011544:	00081040 	sll	v0,t0,0x1
80011548:	000818c0 	sll	v1,t0,0x3
8001154c:	00431021 	addu	v0,v0,v1
80011550:	00461021 	addu	v0,v0,a2
80011554:	2448ffd0 	addiu	t0,v0,-48
80011558:	26310001 	addiu	s1,s1,1
8001155c:	82260000 	lb	a2,0(s1)
80011560:	24c2ffd0 	addiu	v0,a2,-48
80011564:	304200ff 	andi	v0,v0,0xff
80011568:	2c42000a 	sltiu	v0,v0,10
8001156c:	1440fff6 	bnez	v0,80011548 <lp_Print+0x108>
80011570:	00081040 	sll	v0,t0,0x1
80011574:	82230000 	lb	v1,0(s1)
80011578:	2402002e 	li	v0,46
8001157c:	14620011 	bne	v1,v0,800115c4 <lp_Print+0x184>
80011580:	2c620079 	sltiu	v0,v1,121
80011584:	26310001 	addiu	s1,s1,1
80011588:	92220000 	lbu	v0,0(s1)
8001158c:	2442ffd0 	addiu	v0,v0,-48
80011590:	304200ff 	andi	v0,v0,0xff
80011594:	2c42000a 	sltiu	v0,v0,10
80011598:	10400008 	beqz	v0,800115bc <lp_Print+0x17c>
8001159c:	00000000 	nop
800115a0:	26310001 	addiu	s1,s1,1
800115a4:	92220000 	lbu	v0,0(s1)
800115a8:	2442ffd0 	addiu	v0,v0,-48
800115ac:	304200ff 	andi	v0,v0,0xff
800115b0:	2c42000a 	sltiu	v0,v0,10
800115b4:	1440fffa 	bnez	v0,800115a0 <lp_Print+0x160>
800115b8:	00000000 	nop
800115bc:	82230000 	lb	v1,0(s1)
800115c0:	2c620079 	sltiu	v0,v1,121
800115c4:	104000e2 	beqz	v0,80011950 <lp_Print+0x510>
800115c8:	00031080 	sll	v0,v1,0x2
800115cc:	3c038001 	lui	v1,0x8001
800115d0:	24634240 	addiu	v1,v1,16960
800115d4:	00431021 	addu	v0,v0,v1
800115d8:	8c420000 	lw	v0,0(v0)
800115dc:	00400008 	jr	v0
800115e0:	00000000 	nop
800115e4:	10800004 	beqz	a0,800115f8 <lp_Print+0x1b8>
800115e8:	00000000 	nop
800115ec:	8e450000 	lw	a1,0(s2)
800115f0:	10000003 	b	80011600 <lp_Print+0x1c0>
800115f4:	26520004 	addiu	s2,s2,4
800115f8:	8e450000 	lw	a1,0(s2)
800115fc:	26520004 	addiu	s2,s2,4
80011600:	afa80010 	sw	t0,16(sp)
80011604:	afa70014 	sw	a3,20(sp)
80011608:	afa90018 	sw	t1,24(sp)
8001160c:	afa0001c 	sw	zero,28(sp)
80011610:	27a40020 	addiu	a0,sp,32
80011614:	24060002 	li	a2,2
80011618:	0c0046cd 	jal	80011b34 <PrintNum>
8001161c:	00003821 	move	a3,zero
80011620:	00403021 	move	a2,v0
80011624:	2c4203e9 	sltiu	v0,v0,1001
80011628:	14400007 	bnez	v0,80011648 <lp_Print+0x208>
8001162c:	02802021 	move	a0,s4
80011630:	3c058001 	lui	a1,0x8001
80011634:	24a54220 	addiu	a1,a1,16928
80011638:	0260f809 	jalr	s3
8001163c:	24060018 	li	a2,24
80011640:	1000ffff 	b	80011640 <lp_Print+0x200>
80011644:	00000000 	nop
80011648:	0260f809 	jalr	s3
8001164c:	27a50020 	addiu	a1,sp,32
80011650:	1000ff86 	b	8001146c <lp_Print+0x2c>
80011654:	26250001 	addiu	a1,s1,1
80011658:	10800004 	beqz	a0,8001166c <lp_Print+0x22c>
8001165c:	00000000 	nop
80011660:	8e450000 	lw	a1,0(s2)
80011664:	10000003 	b	80011674 <lp_Print+0x234>
80011668:	26520004 	addiu	s2,s2,4
8001166c:	8e450000 	lw	a1,0(s2)
80011670:	26520004 	addiu	s2,s2,4
80011674:	04a10003 	bgez	a1,80011684 <lp_Print+0x244>
80011678:	00001021 	move	v0,zero
8001167c:	00052823 	negu	a1,a1
80011680:	24020001 	li	v0,1
80011684:	afa80010 	sw	t0,16(sp)
80011688:	afa70014 	sw	a3,20(sp)
8001168c:	afa90018 	sw	t1,24(sp)
80011690:	afa0001c 	sw	zero,28(sp)
80011694:	27a40020 	addiu	a0,sp,32
80011698:	2406000a 	li	a2,10
8001169c:	0c0046cd 	jal	80011b34 <PrintNum>
800116a0:	00403821 	move	a3,v0
800116a4:	00403021 	move	a2,v0
800116a8:	2c4203e9 	sltiu	v0,v0,1001
800116ac:	14400007 	bnez	v0,800116cc <lp_Print+0x28c>
800116b0:	02802021 	move	a0,s4
800116b4:	3c058001 	lui	a1,0x8001
800116b8:	24a54220 	addiu	a1,a1,16928
800116bc:	0260f809 	jalr	s3
800116c0:	24060018 	li	a2,24
800116c4:	1000ffff 	b	800116c4 <lp_Print+0x284>
800116c8:	00000000 	nop
800116cc:	0260f809 	jalr	s3
800116d0:	27a50020 	addiu	a1,sp,32
800116d4:	1000ff65 	b	8001146c <lp_Print+0x2c>
800116d8:	26250001 	addiu	a1,s1,1
800116dc:	10800004 	beqz	a0,800116f0 <lp_Print+0x2b0>
800116e0:	00000000 	nop
800116e4:	8e450000 	lw	a1,0(s2)
800116e8:	10000003 	b	800116f8 <lp_Print+0x2b8>
800116ec:	26520004 	addiu	s2,s2,4
800116f0:	8e450000 	lw	a1,0(s2)
800116f4:	26520004 	addiu	s2,s2,4
800116f8:	afa80010 	sw	t0,16(sp)
800116fc:	afa70014 	sw	a3,20(sp)
80011700:	afa90018 	sw	t1,24(sp)
80011704:	afa0001c 	sw	zero,28(sp)
80011708:	27a40020 	addiu	a0,sp,32
8001170c:	24060008 	li	a2,8
80011710:	0c0046cd 	jal	80011b34 <PrintNum>
80011714:	00003821 	move	a3,zero
80011718:	00403021 	move	a2,v0
8001171c:	2c4203e9 	sltiu	v0,v0,1001
80011720:	14400007 	bnez	v0,80011740 <lp_Print+0x300>
80011724:	02802021 	move	a0,s4
80011728:	3c058001 	lui	a1,0x8001
8001172c:	24a54220 	addiu	a1,a1,16928
80011730:	0260f809 	jalr	s3
80011734:	24060018 	li	a2,24
80011738:	1000ffff 	b	80011738 <lp_Print+0x2f8>
8001173c:	00000000 	nop
80011740:	0260f809 	jalr	s3
80011744:	27a50020 	addiu	a1,sp,32
80011748:	1000ff48 	b	8001146c <lp_Print+0x2c>
8001174c:	26250001 	addiu	a1,s1,1
80011750:	10800004 	beqz	a0,80011764 <lp_Print+0x324>
80011754:	00000000 	nop
80011758:	8e450000 	lw	a1,0(s2)
8001175c:	10000003 	b	8001176c <lp_Print+0x32c>
80011760:	26520004 	addiu	s2,s2,4
80011764:	8e450000 	lw	a1,0(s2)
80011768:	26520004 	addiu	s2,s2,4
8001176c:	afa80010 	sw	t0,16(sp)
80011770:	afa70014 	sw	a3,20(sp)
80011774:	afa90018 	sw	t1,24(sp)
80011778:	afa0001c 	sw	zero,28(sp)
8001177c:	27a40020 	addiu	a0,sp,32
80011780:	2406000a 	li	a2,10
80011784:	0c0046cd 	jal	80011b34 <PrintNum>
80011788:	00003821 	move	a3,zero
8001178c:	00403021 	move	a2,v0
80011790:	2c4203e9 	sltiu	v0,v0,1001
80011794:	14400007 	bnez	v0,800117b4 <lp_Print+0x374>
80011798:	02802021 	move	a0,s4
8001179c:	3c058001 	lui	a1,0x8001
800117a0:	24a54220 	addiu	a1,a1,16928
800117a4:	0260f809 	jalr	s3
800117a8:	24060018 	li	a2,24
800117ac:	1000ffff 	b	800117ac <lp_Print+0x36c>
800117b0:	00000000 	nop
800117b4:	0260f809 	jalr	s3
800117b8:	27a50020 	addiu	a1,sp,32
800117bc:	1000ff2b 	b	8001146c <lp_Print+0x2c>
800117c0:	26250001 	addiu	a1,s1,1
800117c4:	10800004 	beqz	a0,800117d8 <lp_Print+0x398>
800117c8:	00000000 	nop
800117cc:	8e450000 	lw	a1,0(s2)
800117d0:	10000003 	b	800117e0 <lp_Print+0x3a0>
800117d4:	26520004 	addiu	s2,s2,4
800117d8:	8e450000 	lw	a1,0(s2)
800117dc:	26520004 	addiu	s2,s2,4
800117e0:	afa80010 	sw	t0,16(sp)
800117e4:	afa70014 	sw	a3,20(sp)
800117e8:	afa90018 	sw	t1,24(sp)
800117ec:	afa0001c 	sw	zero,28(sp)
800117f0:	27a40020 	addiu	a0,sp,32
800117f4:	24060010 	li	a2,16
800117f8:	0c0046cd 	jal	80011b34 <PrintNum>
800117fc:	00003821 	move	a3,zero
80011800:	00403021 	move	a2,v0
80011804:	2c4203e9 	sltiu	v0,v0,1001
80011808:	14400007 	bnez	v0,80011828 <lp_Print+0x3e8>
8001180c:	02802021 	move	a0,s4
80011810:	3c058001 	lui	a1,0x8001
80011814:	24a54220 	addiu	a1,a1,16928
80011818:	0260f809 	jalr	s3
8001181c:	24060018 	li	a2,24
80011820:	1000ffff 	b	80011820 <lp_Print+0x3e0>
80011824:	00000000 	nop
80011828:	0260f809 	jalr	s3
8001182c:	27a50020 	addiu	a1,sp,32
80011830:	1000ff0e 	b	8001146c <lp_Print+0x2c>
80011834:	26250001 	addiu	a1,s1,1
80011838:	10800004 	beqz	a0,8001184c <lp_Print+0x40c>
8001183c:	00000000 	nop
80011840:	8e450000 	lw	a1,0(s2)
80011844:	10000003 	b	80011854 <lp_Print+0x414>
80011848:	26520004 	addiu	s2,s2,4
8001184c:	8e450000 	lw	a1,0(s2)
80011850:	26520004 	addiu	s2,s2,4
80011854:	afa80010 	sw	t0,16(sp)
80011858:	afa70014 	sw	a3,20(sp)
8001185c:	afa90018 	sw	t1,24(sp)
80011860:	24020001 	li	v0,1
80011864:	afa2001c 	sw	v0,28(sp)
80011868:	27a40020 	addiu	a0,sp,32
8001186c:	24060010 	li	a2,16
80011870:	0c0046cd 	jal	80011b34 <PrintNum>
80011874:	00003821 	move	a3,zero
80011878:	00403021 	move	a2,v0
8001187c:	2c4203e9 	sltiu	v0,v0,1001
80011880:	14400007 	bnez	v0,800118a0 <lp_Print+0x460>
80011884:	02802021 	move	a0,s4
80011888:	3c058001 	lui	a1,0x8001
8001188c:	24a54220 	addiu	a1,a1,16928
80011890:	0260f809 	jalr	s3
80011894:	24060018 	li	a2,24
80011898:	1000ffff 	b	80011898 <lp_Print+0x458>
8001189c:	00000000 	nop
800118a0:	0260f809 	jalr	s3
800118a4:	27a50020 	addiu	a1,sp,32
800118a8:	1000fef0 	b	8001146c <lp_Print+0x2c>
800118ac:	26250001 	addiu	a1,s1,1
800118b0:	26500004 	addiu	s0,s2,4
800118b4:	27a40020 	addiu	a0,sp,32
800118b8:	82450003 	lb	a1,3(s2)
800118bc:	0c00466b 	jal	800119ac <PrintChar>
800118c0:	01003021 	move	a2,t0
800118c4:	00403021 	move	a2,v0
800118c8:	2c4203e9 	sltiu	v0,v0,1001
800118cc:	14400007 	bnez	v0,800118ec <lp_Print+0x4ac>
800118d0:	02802021 	move	a0,s4
800118d4:	3c058001 	lui	a1,0x8001
800118d8:	24a54220 	addiu	a1,a1,16928
800118dc:	0260f809 	jalr	s3
800118e0:	24060018 	li	a2,24
800118e4:	1000ffff 	b	800118e4 <lp_Print+0x4a4>
800118e8:	00000000 	nop
800118ec:	0260f809 	jalr	s3
800118f0:	27a50020 	addiu	a1,sp,32
800118f4:	1000001a 	b	80011960 <lp_Print+0x520>
800118f8:	02009021 	move	s2,s0
800118fc:	26500004 	addiu	s0,s2,4
80011900:	27a40020 	addiu	a0,sp,32
80011904:	8e450000 	lw	a1,0(s2)
80011908:	0c00468b 	jal	80011a2c <PrintString>
8001190c:	01003021 	move	a2,t0
80011910:	00403021 	move	a2,v0
80011914:	2c4203e9 	sltiu	v0,v0,1001
80011918:	14400007 	bnez	v0,80011938 <lp_Print+0x4f8>
8001191c:	02802021 	move	a0,s4
80011920:	3c058001 	lui	a1,0x8001
80011924:	24a54220 	addiu	a1,a1,16928
80011928:	0260f809 	jalr	s3
8001192c:	24060018 	li	a2,24
80011930:	1000ffff 	b	80011930 <lp_Print+0x4f0>
80011934:	00000000 	nop
80011938:	0260f809 	jalr	s3
8001193c:	27a50020 	addiu	a1,sp,32
80011940:	10000007 	b	80011960 <lp_Print+0x520>
80011944:	02009021 	move	s2,s0
80011948:	10000005 	b	80011960 <lp_Print+0x520>
8001194c:	2631ffff 	addiu	s1,s1,-1
80011950:	02802021 	move	a0,s4
80011954:	02202821 	move	a1,s1
80011958:	0260f809 	jalr	s3
8001195c:	24060001 	li	a2,1
80011960:	1000fec2 	b	8001146c <lp_Print+0x2c>
80011964:	26250001 	addiu	a1,s1,1
80011968:	02802021 	move	a0,s4
8001196c:	3c058001 	lui	a1,0x8001
80011970:	24a5423c 	addiu	a1,a1,16956
80011974:	0260f809 	jalr	s3
80011978:	24060001 	li	a2,1
8001197c:	8fbf041c 	lw	ra,1052(sp)
80011980:	8fb40418 	lw	s4,1048(sp)
80011984:	8fb30414 	lw	s3,1044(sp)
80011988:	8fb20410 	lw	s2,1040(sp)
8001198c:	8fb1040c 	lw	s1,1036(sp)
80011990:	8fb00408 	lw	s0,1032(sp)
80011994:	03e00008 	jr	ra
80011998:	27bd0420 	addiu	sp,sp,1056
8001199c:	1462feb8 	bne	v1,v0,80011480 <lp_Print+0x40>
800119a0:	24030025 	li	v1,37
800119a4:	1000febf 	b	800114a4 <lp_Print+0x64>
800119a8:	00a08021 	move	s0,a1

800119ac <PrintChar>:
800119ac:	00052e00 	sll	a1,a1,0x18
800119b0:	00052e03 	sra	a1,a1,0x18
800119b4:	0006182a 	slt	v1,zero,a2
800119b8:	24020001 	li	v0,1
800119bc:	10e00015 	beqz	a3,80011a14 <PrintChar+0x68>
800119c0:	0043300a 	movz	a2,v0,v1
800119c4:	28c20002 	slti	v0,a2,2
800119c8:	14400016 	bnez	v0,80011a24 <PrintChar+0x78>
800119cc:	a0850000 	sb	a1,0(a0)
800119d0:	24030001 	li	v1,1
800119d4:	24050020 	li	a1,32
800119d8:	00831021 	addu	v0,a0,v1
800119dc:	24630001 	addiu	v1,v1,1
800119e0:	10c30010 	beq	a2,v1,80011a24 <PrintChar+0x78>
800119e4:	a0450000 	sb	a1,0(v0)
800119e8:	1000fffc 	b	800119dc <PrintChar+0x30>
800119ec:	00831021 	addu	v0,a0,v1
800119f0:	00001821 	move	v1,zero
800119f4:	24080020 	li	t0,32
800119f8:	00641021 	addu	v0,v1,a0
800119fc:	24630001 	addiu	v1,v1,1
80011a00:	1467fffd 	bne	v1,a3,800119f8 <PrintChar+0x4c>
80011a04:	a0480000 	sb	t0,0(v0)
80011a08:	00c41021 	addu	v0,a2,a0
80011a0c:	10000005 	b	80011a24 <PrintChar+0x78>
80011a10:	a045ffff 	sb	a1,-1(v0)
80011a14:	24c7ffff 	addiu	a3,a2,-1
80011a18:	1ce0fff5 	bgtz	a3,800119f0 <PrintChar+0x44>
80011a1c:	00c41021 	addu	v0,a2,a0
80011a20:	a045ffff 	sb	a1,-1(v0)
80011a24:	03e00008 	jr	ra
80011a28:	00c01021 	move	v0,a2

80011a2c <PrintString>:
80011a2c:	80a20000 	lb	v0,0(a1)
80011a30:	14400003 	bnez	v0,80011a40 <PrintString+0x14>
80011a34:	24a30001 	addiu	v1,a1,1
80011a38:	10000006 	b	80011a54 <PrintString+0x28>
80011a3c:	00004021 	move	t0,zero
80011a40:	00004021 	move	t0,zero
80011a44:	25080001 	addiu	t0,t0,1
80011a48:	80620000 	lb	v0,0(v1)
80011a4c:	1440fffd 	bnez	v0,80011a44 <PrintString+0x18>
80011a50:	24630001 	addiu	v1,v1,1
80011a54:	00c8102a 	slt	v0,a2,t0
80011a58:	14e00030 	bnez	a3,80011b1c <PrintString+0xf0>
80011a5c:	0102300b 	movn	a2,t0,v0
80011a60:	1000002a 	b	80011b0c <PrintString+0xe0>
80011a64:	00c83823 	subu	a3,a2,t0
80011a68:	00003821 	move	a3,zero
80011a6c:	00871021 	addu	v0,a0,a3
80011a70:	00a71821 	addu	v1,a1,a3
80011a74:	90630000 	lbu	v1,0(v1)
80011a78:	24e70001 	addiu	a3,a3,1
80011a7c:	1507fffb 	bne	t0,a3,80011a6c <PrintString+0x40>
80011a80:	a0430000 	sb	v1,0(v0)
80011a84:	0106102a 	slt	v0,t0,a2
80011a88:	10400028 	beqz	v0,80011b2c <PrintString+0x100>
80011a8c:	00001821 	move	v1,zero
80011a90:	00881021 	addu	v0,a0,t0
80011a94:	24050020 	li	a1,32
80011a98:	00c82023 	subu	a0,a2,t0
80011a9c:	a0450000 	sb	a1,0(v0)
80011aa0:	24630001 	addiu	v1,v1,1
80011aa4:	10640021 	beq	v1,a0,80011b2c <PrintString+0x100>
80011aa8:	24420001 	addiu	v0,v0,1
80011aac:	1000fffc 	b	80011aa0 <PrintString+0x74>
80011ab0:	a0450000 	sb	a1,0(v0)
80011ab4:	00001821 	move	v1,zero
80011ab8:	24090020 	li	t1,32
80011abc:	00831021 	addu	v0,a0,v1
80011ac0:	24630001 	addiu	v1,v1,1
80011ac4:	1467fffd 	bne	v1,a3,80011abc <PrintString+0x90>
80011ac8:	a0490000 	sb	t1,0(v0)
80011acc:	00e6102a 	slt	v0,a3,a2
80011ad0:	10400016 	beqz	v0,80011b2c <PrintString+0x100>
80011ad4:	00872021 	addu	a0,a0,a3
80011ad8:	00e61023 	subu	v0,a3,a2
80011adc:	01021021 	addu	v0,t0,v0
80011ae0:	00a21821 	addu	v1,a1,v0
80011ae4:	00002821 	move	a1,zero
80011ae8:	00c73823 	subu	a3,a2,a3
80011aec:	90620000 	lbu	v0,0(v1)
80011af0:	a0820000 	sb	v0,0(a0)
80011af4:	24a50001 	addiu	a1,a1,1
80011af8:	24630001 	addiu	v1,v1,1
80011afc:	10a7000b 	beq	a1,a3,80011b2c <PrintString+0x100>
80011b00:	24840001 	addiu	a0,a0,1
80011b04:	1000fffa 	b	80011af0 <PrintString+0xc4>
80011b08:	90620000 	lbu	v0,0(v1)
80011b0c:	1ce0ffe9 	bgtz	a3,80011ab4 <PrintString+0x88>
80011b10:	00e6102a 	slt	v0,a3,a2
80011b14:	1000ffee 	b	80011ad0 <PrintString+0xa4>
80011b18:	00000000 	nop
80011b1c:	1d00ffd2 	bgtz	t0,80011a68 <PrintString+0x3c>
80011b20:	0106102a 	slt	v0,t0,a2
80011b24:	1000ffd8 	b	80011a88 <PrintString+0x5c>
80011b28:	00000000 	nop
80011b2c:	03e00008 	jr	ra
80011b30:	00c01021 	move	v0,a2

80011b34 <PrintNum>:
80011b34:	8fa90010 	lw	t1,16(sp)
80011b38:	8fac0014 	lw	t4,20(sp)
80011b3c:	8fab001c 	lw	t3,28(sp)
80011b40:	83aa001b 	lb	t2,27(sp)
80011b44:	00804021 	move	t0,a0
80011b48:	00a6001b 	divu	zero,a1,a2
80011b4c:	00c001f4 	teq	a2,zero,0x7
80011b50:	00001810 	mfhi	v1
80011b54:	2862000a 	slti	v0,v1,10
80011b58:	10400004 	beqz	v0,80011b6c <PrintNum+0x38>
80011b5c:	24620030 	addiu	v0,v1,48
80011b60:	a1020000 	sb	v0,0(t0)
80011b64:	1000000b 	b	80011b94 <PrintNum+0x60>
80011b68:	25080001 	addiu	t0,t0,1
80011b6c:	11600005 	beqz	t3,80011b84 <PrintNum+0x50>
80011b70:	24620057 	addiu	v0,v1,87
80011b74:	24620037 	addiu	v0,v1,55
80011b78:	a1020000 	sb	v0,0(t0)
80011b7c:	10000003 	b	80011b8c <PrintNum+0x58>
80011b80:	25080001 	addiu	t0,t0,1
80011b84:	a1020000 	sb	v0,0(t0)
80011b88:	25080001 	addiu	t0,t0,1
80011b8c:	00a6001b 	divu	zero,a1,a2
80011b90:	00c001f4 	teq	a2,zero,0x7
80011b94:	00002812 	mflo	a1
80011b98:	14a0ffeb 	bnez	a1,80011b48 <PrintNum+0x14>
80011b9c:	00000000 	nop
80011ba0:	10e00005 	beqz	a3,80011bb8 <PrintNum+0x84>
80011ba4:	01043023 	subu	a2,t0,a0
80011ba8:	2402002d 	li	v0,45
80011bac:	a1020000 	sb	v0,0(t0)
80011bb0:	25080001 	addiu	t0,t0,1
80011bb4:	01043023 	subu	a2,t0,a0
80011bb8:	0126102a 	slt	v0,t1,a2
80011bbc:	00c2480b 	movn	t1,a2,v0
80011bc0:	24020020 	li	v0,32
80011bc4:	10e00032 	beqz	a3,80011c90 <PrintNum+0x15c>
80011bc8:	004c500b 	movn	t2,v0,t4
80011bcc:	15800031 	bnez	t4,80011c94 <PrintNum+0x160>
80011bd0:	00c9102a 	slt	v0,a2,t1
80011bd4:	24020030 	li	v0,48
80011bd8:	1542002e 	bne	t2,v0,80011c94 <PrintNum+0x160>
80011bdc:	00c9102a 	slt	v0,a2,t1
80011be0:	24c6ffff 	addiu	a2,a2,-1
80011be4:	2528ffff 	addiu	t0,t1,-1
80011be8:	00c8102a 	slt	v0,a2,t0
80011bec:	10400008 	beqz	v0,80011c10 <PrintNum+0xdc>
80011bf0:	01061023 	subu	v0,t0,a2
80011bf4:	00861821 	addu	v1,a0,a2
80011bf8:	00002821 	move	a1,zero
80011bfc:	24070030 	li	a3,48
80011c00:	a0670000 	sb	a3,0(v1)
80011c04:	24a50001 	addiu	a1,a1,1
80011c08:	14a2fffd 	bne	a1,v0,80011c00 <PrintNum+0xcc>
80011c0c:	24630001 	addiu	v1,v1,1
80011c10:	00891821 	addu	v1,a0,t1
80011c14:	2402002d 	li	v0,45
80011c18:	1000000d 	b	80011c50 <PrintNum+0x11c>
80011c1c:	a062ffff 	sb	v0,-1(v1)
80011c20:	a0aa0000 	sb	t2,0(a1)
80011c24:	24630001 	addiu	v1,v1,1
80011c28:	01261023 	subu	v0,t1,a2
80011c2c:	1462fffc 	bne	v1,v0,80011c20 <PrintNum+0xec>
80011c30:	24a50001 	addiu	a1,a1,1
80011c34:	11800006 	beqz	t4,80011c50 <PrintNum+0x11c>
80011c38:	00000000 	nop
80011c3c:	24c6ffff 	addiu	a2,a2,-1
80011c40:	1cc00005 	bgtz	a2,80011c58 <PrintNum+0x124>
80011c44:	00003821 	move	a3,zero
80011c48:	03e00008 	jr	ra
80011c4c:	01201021 	move	v0,t1
80011c50:	1000fffb 	b	80011c40 <PrintNum+0x10c>
80011c54:	2526ffff 	addiu	a2,t1,-1
80011c58:	00802821 	move	a1,a0
80011c5c:	00862021 	addu	a0,a0,a2
80011c60:	80a20000 	lb	v0,0(a1)
80011c64:	90830000 	lbu	v1,0(a0)
80011c68:	a0a30000 	sb	v1,0(a1)
80011c6c:	a0820000 	sb	v0,0(a0)
80011c70:	24e70001 	addiu	a3,a3,1
80011c74:	24c6ffff 	addiu	a2,a2,-1
80011c78:	24a50001 	addiu	a1,a1,1
80011c7c:	00e6102a 	slt	v0,a3,a2
80011c80:	10400009 	beqz	v0,80011ca8 <PrintNum+0x174>
80011c84:	2484ffff 	addiu	a0,a0,-1
80011c88:	1000fff6 	b	80011c64 <PrintNum+0x130>
80011c8c:	80a20000 	lb	v0,0(a1)
80011c90:	00c9102a 	slt	v0,a2,t1
80011c94:	1040ffe7 	beqz	v0,80011c34 <PrintNum+0x100>
80011c98:	00000000 	nop
80011c9c:	00862821 	addu	a1,a0,a2
80011ca0:	1000ffdf 	b	80011c20 <PrintNum+0xec>
80011ca4:	00001821 	move	v1,zero
80011ca8:	01201021 	move	v0,t1
80011cac:	03e00008 	jr	ra
80011cb0:	00000000 	nop
	...

80011cc0 <myoutput>:
80011cc0:	27bdffe0 	addiu	sp,sp,-32
80011cc4:	afbf001c 	sw	ra,28(sp)
80011cc8:	afb20018 	sw	s2,24(sp)
80011ccc:	afb10014 	sw	s1,20(sp)
80011cd0:	afb00010 	sw	s0,16(sp)
80011cd4:	24020001 	li	v0,1
80011cd8:	14c20013 	bne	a2,v0,80011d28 <myoutput+0x68>
80011cdc:	00c09021 	move	s2,a2
80011ce0:	80a20000 	lb	v0,0(a1)
80011ce4:	14400013 	bnez	v0,80011d34 <myoutput+0x74>
80011ce8:	00a08021 	move	s0,a1
80011cec:	10000014 	b	80011d40 <myoutput+0x80>
80011cf0:	8fbf001c 	lw	ra,28(sp)
80011cf4:	0c004074 	jal	800101d0 <printcharc>
80011cf8:	82040000 	lb	a0,0(s0)
80011cfc:	82030000 	lb	v1,0(s0)
80011d00:	2402000a 	li	v0,10
80011d04:	14620003 	bne	v1,v0,80011d14 <myoutput+0x54>
80011d08:	00000000 	nop
80011d0c:	0c004074 	jal	800101d0 <printcharc>
80011d10:	2404000a 	li	a0,10
80011d14:	26310001 	addiu	s1,s1,1
80011d18:	12510008 	beq	s2,s1,80011d3c <myoutput+0x7c>
80011d1c:	26100001 	addiu	s0,s0,1
80011d20:	1000fff4 	b	80011cf4 <myoutput+0x34>
80011d24:	00000000 	nop
80011d28:	18c00005 	blez	a2,80011d40 <myoutput+0x80>
80011d2c:	8fbf001c 	lw	ra,28(sp)
80011d30:	00a08021 	move	s0,a1
80011d34:	1000ffef 	b	80011cf4 <myoutput+0x34>
80011d38:	00008821 	move	s1,zero
80011d3c:	8fbf001c 	lw	ra,28(sp)
80011d40:	8fb20018 	lw	s2,24(sp)
80011d44:	8fb10014 	lw	s1,20(sp)
80011d48:	8fb00010 	lw	s0,16(sp)
80011d4c:	03e00008 	jr	ra
80011d50:	27bd0020 	addiu	sp,sp,32

80011d54 <printf>:
80011d54:	27bdffe0 	addiu	sp,sp,-32
80011d58:	afbf0018 	sw	ra,24(sp)
80011d5c:	afa50024 	sw	a1,36(sp)
80011d60:	afa60028 	sw	a2,40(sp)
80011d64:	afa7002c 	sw	a3,44(sp)
80011d68:	00803021 	move	a2,a0
80011d6c:	27a70024 	addiu	a3,sp,36
80011d70:	afa70010 	sw	a3,16(sp)
80011d74:	3c048001 	lui	a0,0x8001
80011d78:	24841cc0 	addiu	a0,a0,7360
80011d7c:	0c004510 	jal	80011440 <lp_Print>
80011d80:	00002821 	move	a1,zero
80011d84:	8fbf0018 	lw	ra,24(sp)
80011d88:	03e00008 	jr	ra
80011d8c:	27bd0020 	addiu	sp,sp,32

80011d90 <_panic>:
80011d90:	27bdffe0 	addiu	sp,sp,-32
80011d94:	afbf001c 	sw	ra,28(sp)
80011d98:	afb00018 	sw	s0,24(sp)
80011d9c:	00801821 	move	v1,a0
80011da0:	00a04021 	move	t0,a1
80011da4:	afa7002c 	sw	a3,44(sp)
80011da8:	00c08021 	move	s0,a2
80011dac:	27a2002c 	addiu	v0,sp,44
80011db0:	afa20010 	sw	v0,16(sp)
80011db4:	3c048001 	lui	a0,0x8001
80011db8:	248445f4 	addiu	a0,a0,17908
80011dbc:	00602821 	move	a1,v1
80011dc0:	0c004755 	jal	80011d54 <printf>
80011dc4:	01003021 	move	a2,t0
80011dc8:	3c048001 	lui	a0,0x8001
80011dcc:	24841cc0 	addiu	a0,a0,7360
80011dd0:	00002821 	move	a1,zero
80011dd4:	02003021 	move	a2,s0
80011dd8:	0c004510 	jal	80011440 <lp_Print>
80011ddc:	8fa70010 	lw	a3,16(sp)
80011de0:	3c048001 	lui	a0,0x8001
80011de4:	0c004755 	jal	80011d54 <printf>
80011de8:	248445c4 	addiu	a0,a0,17860
80011dec:	1000ffff 	b	80011dec <_panic+0x5c>
80011df0:	00000000 	nop
	...

80011e00 <sched_yield>:
80011e00:	27bdffe8 	addiu	sp,sp,-24
80011e04:	afbf0010 	sw	ra,16(sp)
80011e08:	3c028001 	lui	v0,0x8001
80011e0c:	8c447510 	lw	a0,29968(v0)
80011e10:	38840001 	xori	a0,a0,0x1
80011e14:	ac447510 	sw	a0,29968(v0)
80011e18:	000410c0 	sll	v0,a0,0x3
80011e1c:	00042140 	sll	a0,a0,0x5
80011e20:	00822023 	subu	a0,a0,v0
80011e24:	000410c0 	sll	v0,a0,0x3
80011e28:	00822021 	addu	a0,a0,v0
80011e2c:	3c028001 	lui	v0,0x8001
80011e30:	8c427520 	lw	v0,29984(v0)
80011e34:	0c0042d0 	jal	80010b40 <env_run>
80011e38:	00822021 	addu	a0,a0,v0
80011e3c:	8fbf0010 	lw	ra,16(sp)
80011e40:	03e00008 	jr	ra
80011e44:	27bd0018 	addiu	sp,sp,24
	...

80011e50 <handle_sys>:
80011e50:	401a6000 	mfc0	k0,c0_status
80011e54:	001ad0c0 	sll	k0,k0,0x3
80011e58:	07400001 	bltz	k0,80011e60 <handle_sys+0x10>
80011e5c:	00000000 	nop
80011e60:	03a0d021 	move	k0,sp
80011e64:	401b6800 	mfc0	k1,c0_cause
80011e68:	337b107c 	andi	k1,k1,0x107c
80011e6c:	3b7b1000 	xori	k1,k1,0x1000
80011e70:	17600004 	bnez	k1,80011e84 <handle_sys+0x34>
80011e74:	00000000 	nop
80011e78:	3c1d8200 	lui	sp,0x8200
80011e7c:	080047a6 	j	80011e98 <handle_sys+0x48>
80011e80:	00000000 	nop
80011e84:	07a00004 	bltz	sp,80011e98 <handle_sys+0x48>
80011e88:	00000000 	nop
80011e8c:	3c1d8001 	lui	sp,0x8001
80011e90:	8fbd7500 	lw	sp,29952(sp)
	...
80011e9c:	03a0d821 	move	k1,sp
80011ea0:	277dff64 	addiu	sp,k1,-156
80011ea4:	afba0074 	sw	k0,116(sp)
80011ea8:	afa20008 	sw	v0,8(sp)
80011eac:	40026000 	mfc0	v0,c0_status
80011eb0:	afa20080 	sw	v0,128(sp)
80011eb4:	40026800 	mfc0	v0,c0_cause
80011eb8:	afa20090 	sw	v0,144(sp)
80011ebc:	40027000 	mfc0	v0,c0_epc
80011ec0:	afa20094 	sw	v0,148(sp)
80011ec4:	40024000 	mfc0	v0,c0_badvaddr
80011ec8:	afa2008c 	sw	v0,140(sp)
80011ecc:	00001010 	mfhi	v0
80011ed0:	afa20084 	sw	v0,132(sp)
80011ed4:	00001012 	mflo	v0
80011ed8:	afa20088 	sw	v0,136(sp)
80011edc:	afa00000 	sw	zero,0(sp)
80011ee0:	afa10004 	sw	at,4(sp)
80011ee4:	afa3000c 	sw	v1,12(sp)
80011ee8:	afa40010 	sw	a0,16(sp)
80011eec:	afa50014 	sw	a1,20(sp)
80011ef0:	afa60018 	sw	a2,24(sp)
80011ef4:	afa7001c 	sw	a3,28(sp)
80011ef8:	afa80020 	sw	t0,32(sp)
80011efc:	afa90024 	sw	t1,36(sp)
80011f00:	afaa0028 	sw	t2,40(sp)
80011f04:	afab002c 	sw	t3,44(sp)
80011f08:	afac0030 	sw	t4,48(sp)
80011f0c:	afad0034 	sw	t5,52(sp)
80011f10:	afae0038 	sw	t6,56(sp)
80011f14:	afaf003c 	sw	t7,60(sp)
80011f18:	afb00040 	sw	s0,64(sp)
80011f1c:	afb10044 	sw	s1,68(sp)
80011f20:	afb20048 	sw	s2,72(sp)
80011f24:	afb3004c 	sw	s3,76(sp)
80011f28:	afb40050 	sw	s4,80(sp)
80011f2c:	afb50054 	sw	s5,84(sp)
80011f30:	afb60058 	sw	s6,88(sp)
80011f34:	afb7005c 	sw	s7,92(sp)
80011f38:	afb80060 	sw	t8,96(sp)
80011f3c:	afb90064 	sw	t9,100(sp)
80011f40:	afba0068 	sw	k0,104(sp)
80011f44:	afbb006c 	sw	k1,108(sp)
80011f48:	afbc0070 	sw	gp,112(sp)
80011f4c:	afbe0078 	sw	s8,120(sp)
80011f50:	afbf007c 	sw	ra,124(sp)
80011f54:	40086000 	mfc0	t0,c0_status
80011f58:	3c091000 	lui	t1,0x1000
80011f5c:	35290001 	ori	t1,t1,0x1
80011f60:	01094025 	or	t0,t0,t1
80011f64:	39080001 	xori	t0,t0,0x1
80011f68:	40886000 	mtc0	t0,c0_status
80011f6c:	00000000 	nop
80011f70:	8fa90094 	lw	t1,148(sp)
80011f74:	8fa20008 	lw	v0,8(sp)
80011f78:	2442dac9 	addiu	v0,v0,-9527
80011f7c:	2c480015 	sltiu	t0,v0,21
80011f80:	25290004 	addiu	t1,t1,4
80011f84:	afa90094 	sw	t1,148(sp)
80011f88:	11000020 	beqz	t0,8001200c <illegal_syscall>
80011f8c:	00000000 	nop
80011f90:	00024080 	sll	t0,v0,0x2
80011f94:	3c098001 	lui	t1,0x8001
80011f98:	25292014 	addiu	t1,t1,8212
80011f9c:	01284821 	addu	t1,t1,t0
80011fa0:	8d2a0000 	lw	t2,0(t1)
80011fa4:	11400019 	beqz	t2,8001200c <illegal_syscall>
80011fa8:	00000000 	nop
80011fac:	8fa80074 	lw	t0,116(sp)
80011fb0:	8d090000 	lw	t1,0(t0)
80011fb4:	8d0b0004 	lw	t3,4(t0)
80011fb8:	8d0c0008 	lw	t4,8(t0)
80011fbc:	8d0d000c 	lw	t5,12(t0)
80011fc0:	8d0e0010 	lw	t6,16(t0)
80011fc4:	8d0f0014 	lw	t7,20(t0)
80011fc8:	27bdffec 	addiu	sp,sp,-20
80011fcc:	afa90000 	sw	t1,0(sp)
80011fd0:	afab0004 	sw	t3,4(sp)
80011fd4:	afac0008 	sw	t4,8(sp)
80011fd8:	afad000c 	sw	t5,12(sp)
80011fdc:	afae0010 	sw	t6,16(sp)
80011fe0:	afaf0014 	sw	t7,20(sp)
80011fe4:	01202021 	move	a0,t1
80011fe8:	01602821 	move	a1,t3
80011fec:	01803021 	move	a2,t4
80011ff0:	01a03821 	move	a3,t5
80011ff4:	0140f809 	jalr	t2
80011ff8:	00000000 	nop
80011ffc:	27bd0014 	addiu	sp,sp,20
80012000:	afa20008 	sw	v0,8(sp)
80012004:	08004338 	j	80010ce0 <ret_from_exception>
80012008:	00000000 	nop

8001200c <illegal_syscall>:
8001200c:	08004803 	j	8001200c <illegal_syscall>
80012010:	00000000 	nop

80012014 <sys_call_table>:
80012014:	80012050 	lb	at,8272(zero)
80012018:	800120a0 	lb	at,8352(zero)
8001201c:	800120b0 	lb	at,8368(zero)
80012020:	800120e8 	lb	at,8424(zero)
80012024:	80012138 	lb	at,8504(zero)
80012028:	800121a0 	lb	at,8608(zero)
8001202c:	800122b4 	lb	at,8884(zero)
80012030:	80012388 	lb	at,9096(zero)
80012034:	800123dc 	lb	at,9180(zero)
80012038:	80012468 	lb	at,9320(zero)
8001203c:	800124bc 	lb	at,9404(zero)
80012040:	800124c4 	lb	at,9412(zero)
80012044:	800125a4 	lb	at,9636(zero)
80012048:	800124f8 	lb	at,9464(zero)
8001204c:	800113c0 	lb	at,5056(zero)

80012050 <sys_putchar>:
80012050:	27bdffe8 	addiu	sp,sp,-24
80012054:	afbf0010 	sw	ra,16(sp)
80012058:	00052600 	sll	a0,a1,0x18
8001205c:	0c004074 	jal	800101d0 <printcharc>
80012060:	00042603 	sra	a0,a0,0x18
80012064:	8fbf0010 	lw	ra,16(sp)
80012068:	03e00008 	jr	ra
8001206c:	27bd0018 	addiu	sp,sp,24

80012070 <memcpy>:
80012070:	10c00009 	beqz	a2,80012098 <memcpy+0x28>
80012074:	24c2ffff 	addiu	v0,a2,-1
80012078:	00801821 	move	v1,a0
8001207c:	00821021 	addu	v0,a0,v0
80012080:	24460001 	addiu	a2,v0,1
80012084:	90a20000 	lbu	v0,0(a1)
80012088:	a0620000 	sb	v0,0(v1)
8001208c:	24630001 	addiu	v1,v1,1
80012090:	1466fffc 	bne	v1,a2,80012084 <memcpy+0x14>
80012094:	24a50001 	addiu	a1,a1,1
80012098:	03e00008 	jr	ra
8001209c:	00801021 	move	v0,a0

800120a0 <sys_getenvid>:
800120a0:	3c028001 	lui	v0,0x8001
800120a4:	8c427524 	lw	v0,29988(v0)
800120a8:	03e00008 	jr	ra
800120ac:	8c4200a4 	lw	v0,164(v0)

800120b0 <sys_yield>:
800120b0:	27bdffe8 	addiu	sp,sp,-24
800120b4:	afbf0010 	sw	ra,16(sp)
800120b8:	3c028001 	lui	v0,0x8001
800120bc:	8c447500 	lw	a0,29952(v0)
800120c0:	2484ff64 	addiu	a0,a0,-156
800120c4:	3c0581ff 	lui	a1,0x81ff
800120c8:	34a5ff64 	ori	a1,a1,0xff64
800120cc:	0c004049 	jal	80010124 <bcopy>
800120d0:	2406009c 	li	a2,156
800120d4:	0c004780 	jal	80011e00 <sched_yield>
800120d8:	00000000 	nop
800120dc:	8fbf0010 	lw	ra,16(sp)
800120e0:	03e00008 	jr	ra
800120e4:	27bd0018 	addiu	sp,sp,24

800120e8 <sys_env_destroy>:
800120e8:	27bdffe0 	addiu	sp,sp,-32
800120ec:	afbf0018 	sw	ra,24(sp)
800120f0:	00a02021 	move	a0,a1
800120f4:	27a50010 	addiu	a1,sp,16
800120f8:	0c0040a4 	jal	80010290 <envid2env>
800120fc:	24060001 	li	a2,1
80012100:	0440000a 	bltz	v0,8001212c <sys_env_destroy+0x44>
80012104:	3c028001 	lui	v0,0x8001
80012108:	8c427524 	lw	v0,29988(v0)
8001210c:	3c048001 	lui	a0,0x8001
80012110:	24844608 	addiu	a0,a0,17928
80012114:	8c4500a4 	lw	a1,164(v0)
80012118:	8fa20010 	lw	v0,16(sp)
8001211c:	0c004755 	jal	80011d54 <printf>
80012120:	8c4600a4 	lw	a2,164(v0)
80012124:	0c0042b6 	jal	80010ad8 <env_destroy>
80012128:	8fa40010 	lw	a0,16(sp)
8001212c:	8fbf0018 	lw	ra,24(sp)
80012130:	03e00008 	jr	ra
80012134:	27bd0020 	addiu	sp,sp,32

80012138 <sys_set_pgfault_handler>:
80012138:	27bdffd8 	addiu	sp,sp,-40
8001213c:	afbf0020 	sw	ra,32(sp)
80012140:	afb1001c 	sw	s1,28(sp)
80012144:	afb00018 	sw	s0,24(sp)
80012148:	00c08021 	move	s0,a2
8001214c:	00e08821 	move	s1,a3
80012150:	00a02021 	move	a0,a1
80012154:	27a50010 	addiu	a1,sp,16
80012158:	0c0040a4 	jal	80010290 <envid2env>
8001215c:	00003021 	move	a2,zero
80012160:	0440000a 	bltz	v0,8001218c <sys_set_pgfault_handler+0x54>
80012164:	02202021 	move	a0,s1
80012168:	8fa20010 	lw	v0,16(sp)
8001216c:	ac5000cc 	sw	s0,204(v0)
80012170:	3c028000 	lui	v0,0x8000
80012174:	0051102b 	sltu	v0,v0,s1
80012178:	3c038000 	lui	v1,0x8000
8001217c:	0062200b 	movn	a0,v1,v0
80012180:	8fa20010 	lw	v0,16(sp)
80012184:	ac4400d0 	sw	a0,208(v0)
80012188:	00001021 	move	v0,zero
8001218c:	8fbf0020 	lw	ra,32(sp)
80012190:	8fb1001c 	lw	s1,28(sp)
80012194:	8fb00018 	lw	s0,24(sp)
80012198:	03e00008 	jr	ra
8001219c:	27bd0028 	addiu	sp,sp,40

800121a0 <sys_mem_alloc>:
800121a0:	27bdffd8 	addiu	sp,sp,-40
800121a4:	afbf0020 	sw	ra,32(sp)
800121a8:	afb1001c 	sw	s1,28(sp)
800121ac:	afb00018 	sw	s0,24(sp)
800121b0:	00a02021 	move	a0,a1
800121b4:	00c08821 	move	s1,a2
800121b8:	30e20200 	andi	v0,a3,0x200
800121bc:	10400037 	beqz	v0,8001229c <sys_mem_alloc+0xfc>
800121c0:	00e08021 	move	s0,a3
800121c4:	30e20001 	andi	v0,a3,0x1
800121c8:	14400035 	bnez	v0,800122a0 <sys_mem_alloc+0x100>
800121cc:	2402fffd 	li	v0,-3
800121d0:	3c027f3f 	lui	v0,0x7f3f
800121d4:	3442ffff 	ori	v0,v0,0xffff
800121d8:	0046102b 	sltu	v0,v0,a2
800121dc:	14400030 	bnez	v0,800122a0 <sys_mem_alloc+0x100>
800121e0:	2402fffd 	li	v0,-3
800121e4:	27a50010 	addiu	a1,sp,16
800121e8:	0c0040a4 	jal	80010290 <envid2env>
800121ec:	00003021 	move	a2,zero
800121f0:	0440002c 	bltz	v0,800122a4 <sys_mem_alloc+0x104>
800121f4:	8fbf0020 	lw	ra,32(sp)
800121f8:	0c004ba0 	jal	80012e80 <page_alloc>
800121fc:	27a40014 	addiu	a0,sp,20
80012200:	04400027 	bltz	v0,800122a0 <sys_mem_alloc+0x100>
80012204:	8fa30014 	lw	v1,20(sp)
80012208:	3c028001 	lui	v0,0x8001
8001220c:	8c4275d4 	lw	v0,30164(v0)
80012210:	00621823 	subu	v1,v1,v0
80012214:	00031883 	sra	v1,v1,0x2
80012218:	00031080 	sll	v0,v1,0x2
8001221c:	00431021 	addu	v0,v0,v1
80012220:	00021900 	sll	v1,v0,0x4
80012224:	00431021 	addu	v0,v0,v1
80012228:	00021a00 	sll	v1,v0,0x8
8001222c:	00431021 	addu	v0,v0,v1
80012230:	00021c00 	sll	v1,v0,0x10
80012234:	00431021 	addu	v0,v0,v1
80012238:	00021023 	negu	v0,v0
8001223c:	00023b00 	sll	a3,v0,0xc
80012240:	00071302 	srl	v0,a3,0xc
80012244:	3c038001 	lui	v1,0x8001
80012248:	8c6375c0 	lw	v1,30144(v1)
8001224c:	0043102b 	sltu	v0,v0,v1
80012250:	14400007 	bnez	v0,80012270 <sys_mem_alloc+0xd0>
80012254:	3c048000 	lui	a0,0x8000
80012258:	3c048001 	lui	a0,0x8001
8001225c:	2484451c 	addiu	a0,a0,17692
80012260:	24050030 	li	a1,48
80012264:	3c068001 	lui	a2,0x8001
80012268:	0c004764 	jal	80011d90 <_panic>
8001226c:	24c64530 	addiu	a2,a2,17712
80012270:	00e42021 	addu	a0,a3,a0
80012274:	0c004060 	jal	80010180 <bzero>
80012278:	24051000 	li	a1,4096
8001227c:	8fa20010 	lw	v0,16(sp)
80012280:	8c4400b0 	lw	a0,176(v0)
80012284:	8fa50014 	lw	a1,20(sp)
80012288:	02203021 	move	a2,s1
8001228c:	0c004c4d 	jal	80013134 <page_insert>
80012290:	02003821 	move	a3,s0
80012294:	10000003 	b	800122a4 <sys_mem_alloc+0x104>
80012298:	8fbf0020 	lw	ra,32(sp)
8001229c:	2402fffd 	li	v0,-3
800122a0:	8fbf0020 	lw	ra,32(sp)
800122a4:	8fb1001c 	lw	s1,28(sp)
800122a8:	8fb00018 	lw	s0,24(sp)
800122ac:	03e00008 	jr	ra
800122b0:	27bd0028 	addiu	sp,sp,40

800122b4 <sys_mem_map>:
800122b4:	27bdffc8 	addiu	sp,sp,-56
800122b8:	afbf0030 	sw	ra,48(sp)
800122bc:	afb3002c 	sw	s3,44(sp)
800122c0:	afb20028 	sw	s2,40(sp)
800122c4:	afb10024 	sw	s1,36(sp)
800122c8:	afb00020 	sw	s0,32(sp)
800122cc:	00a02021 	move	a0,a1
800122d0:	00e09021 	move	s2,a3
800122d4:	8fa30048 	lw	v1,72(sp)
800122d8:	2402f000 	li	v0,-4096
800122dc:	00c28024 	and	s0,a2,v0
800122e0:	00628824 	and	s1,v1,v0
800122e4:	3c027f40 	lui	v0,0x7f40
800122e8:	0046302b 	sltu	a2,v0,a2
800122ec:	14c0001e 	bnez	a2,80012368 <sys_mem_map+0xb4>
800122f0:	8fb3004c 	lw	s3,76(sp)
800122f4:	0043102b 	sltu	v0,v0,v1
800122f8:	1440001c 	bnez	v0,8001236c <sys_mem_map+0xb8>
800122fc:	2402fffd 	li	v0,-3
80012300:	32620200 	andi	v0,s3,0x200
80012304:	10400019 	beqz	v0,8001236c <sys_mem_map+0xb8>
80012308:	2402fffd 	li	v0,-3
8001230c:	0c0040a4 	jal	80010290 <envid2env>
80012310:	27a50010 	addiu	a1,sp,16
80012314:	04400015 	bltz	v0,8001236c <sys_mem_map+0xb8>
80012318:	02402021 	move	a0,s2
8001231c:	27a50014 	addiu	a1,sp,20
80012320:	0c0040a4 	jal	80010290 <envid2env>
80012324:	00003021 	move	a2,zero
80012328:	04400011 	bltz	v0,80012370 <sys_mem_map+0xbc>
8001232c:	8fbf0030 	lw	ra,48(sp)
80012330:	8fa20010 	lw	v0,16(sp)
80012334:	8c4400b0 	lw	a0,176(v0)
80012338:	02002821 	move	a1,s0
8001233c:	0c004cb2 	jal	800132c8 <page_lookup>
80012340:	27a60018 	addiu	a2,sp,24
80012344:	10400008 	beqz	v0,80012368 <sys_mem_map+0xb4>
80012348:	00402821 	move	a1,v0
8001234c:	8fa20014 	lw	v0,20(sp)
80012350:	8c4400b0 	lw	a0,176(v0)
80012354:	02203021 	move	a2,s1
80012358:	0c004c4d 	jal	80013134 <page_insert>
8001235c:	02603821 	move	a3,s3
80012360:	10000003 	b	80012370 <sys_mem_map+0xbc>
80012364:	8fbf0030 	lw	ra,48(sp)
80012368:	2402fffd 	li	v0,-3
8001236c:	8fbf0030 	lw	ra,48(sp)
80012370:	8fb3002c 	lw	s3,44(sp)
80012374:	8fb20028 	lw	s2,40(sp)
80012378:	8fb10024 	lw	s1,36(sp)
8001237c:	8fb00020 	lw	s0,32(sp)
80012380:	03e00008 	jr	ra
80012384:	27bd0038 	addiu	sp,sp,56

80012388 <sys_mem_unmap>:
80012388:	27bdffd8 	addiu	sp,sp,-40
8001238c:	afbf0020 	sw	ra,32(sp)
80012390:	afb1001c 	sw	s1,28(sp)
80012394:	afb00018 	sw	s0,24(sp)
80012398:	00c08821 	move	s1,a2
8001239c:	00a02021 	move	a0,a1
800123a0:	27a50010 	addiu	a1,sp,16
800123a4:	0c0040a4 	jal	80010290 <envid2env>
800123a8:	00003021 	move	a2,zero
800123ac:	04400005 	bltz	v0,800123c4 <sys_mem_unmap+0x3c>
800123b0:	00408021 	move	s0,v0
800123b4:	8fa20010 	lw	v0,16(sp)
800123b8:	8c4400b0 	lw	a0,176(v0)
800123bc:	0c004cd8 	jal	80013360 <page_remove>
800123c0:	02202821 	move	a1,s1
800123c4:	02001021 	move	v0,s0
800123c8:	8fbf0020 	lw	ra,32(sp)
800123cc:	8fb1001c 	lw	s1,28(sp)
800123d0:	8fb00018 	lw	s0,24(sp)
800123d4:	03e00008 	jr	ra
800123d8:	27bd0028 	addiu	sp,sp,40

800123dc <sys_env_alloc>:
800123dc:	27bdffe0 	addiu	sp,sp,-32
800123e0:	afbf0018 	sw	ra,24(sp)
800123e4:	3c028001 	lui	v0,0x8001
800123e8:	8c427524 	lw	v0,29988(v0)
800123ec:	27a40010 	addiu	a0,sp,16
800123f0:	0c00419e 	jal	80010678 <env_alloc>
800123f4:	8c4500a4 	lw	a1,164(v0)
800123f8:	04400019 	bltz	v0,80012460 <sys_env_alloc+0x84>
800123fc:	8fbf0018 	lw	ra,24(sp)
80012400:	3c028001 	lui	v0,0x8001
80012404:	8c447500 	lw	a0,29952(v0)
80012408:	2484ff64 	addiu	a0,a0,-156
8001240c:	8fa50010 	lw	a1,16(sp)
80012410:	0c004049 	jal	80010124 <bcopy>
80012414:	2406009c 	li	a2,156
80012418:	3c048001 	lui	a0,0x8001
8001241c:	24844620 	addiu	a0,a0,17952
80012420:	8fa20010 	lw	v0,16(sp)
80012424:	0c004755 	jal	80011d54 <printf>
80012428:	8c450094 	lw	a1,148(v0)
8001242c:	8fa30010 	lw	v1,16(sp)
80012430:	8c620094 	lw	v0,148(v1)
80012434:	ac620098 	sw	v0,152(v1)
80012438:	24030002 	li	v1,2
8001243c:	8fa20010 	lw	v0,16(sp)
80012440:	ac4300ac 	sw	v1,172(v0)
80012444:	8fa20010 	lw	v0,16(sp)
80012448:	ac400008 	sw	zero,8(v0)
8001244c:	8fa20010 	lw	v0,16(sp)
80012450:	ac4000cc 	sw	zero,204(v0)
80012454:	8fa20010 	lw	v0,16(sp)
80012458:	8c4200a4 	lw	v0,164(v0)
8001245c:	8fbf0018 	lw	ra,24(sp)
80012460:	03e00008 	jr	ra
80012464:	27bd0020 	addiu	sp,sp,32

80012468 <sys_set_env_status>:
80012468:	27bdffe0 	addiu	sp,sp,-32
8001246c:	afbf001c 	sw	ra,28(sp)
80012470:	afb00018 	sw	s0,24(sp)
80012474:	00a02021 	move	a0,a1
80012478:	2cc20003 	sltiu	v0,a2,3
8001247c:	14400003 	bnez	v0,8001248c <sys_set_env_status+0x24>
80012480:	00c08021 	move	s0,a2
80012484:	10000008 	b	800124a8 <sys_set_env_status+0x40>
80012488:	2403fffd 	li	v1,-3
8001248c:	27a50010 	addiu	a1,sp,16
80012490:	0c0040a4 	jal	80010290 <envid2env>
80012494:	00003021 	move	a2,zero
80012498:	00021fc2 	srl	v1,v0,0x1f
8001249c:	14600002 	bnez	v1,800124a8 <sys_set_env_status+0x40>
800124a0:	8fa20010 	lw	v0,16(sp)
800124a4:	ac5000ac 	sw	s0,172(v0)
800124a8:	00601021 	move	v0,v1
800124ac:	8fbf001c 	lw	ra,28(sp)
800124b0:	8fb00018 	lw	s0,24(sp)
800124b4:	03e00008 	jr	ra
800124b8:	27bd0020 	addiu	sp,sp,32

800124bc <sys_set_trapframe>:
800124bc:	03e00008 	jr	ra
800124c0:	00001021 	move	v0,zero

800124c4 <sys_panic>:
800124c4:	27bdffe8 	addiu	sp,sp,-24
800124c8:	afbf0010 	sw	ra,16(sp)
800124cc:	00a01821 	move	v1,a1
800124d0:	3c028000 	lui	v0,0x8000
800124d4:	0045102b 	sltu	v0,v0,a1
800124d8:	3c048001 	lui	a0,0x8001
800124dc:	24844644 	addiu	a0,a0,17988
800124e0:	24050106 	li	a1,262
800124e4:	3c068001 	lui	a2,0x8001
800124e8:	24c64654 	addiu	a2,a2,18004
800124ec:	3c078000 	lui	a3,0x8000
800124f0:	0c004764 	jal	80011d90 <_panic>
800124f4:	0062380a 	movz	a3,v1,v0

800124f8 <sys_ipc_recv>:
800124f8:	27bdffe8 	addiu	sp,sp,-24
800124fc:	afbf0010 	sw	ra,16(sp)
80012500:	3c028001 	lui	v0,0x8001
80012504:	8c437524 	lw	v1,29988(v0)
80012508:	8c6200c0 	lw	v0,192(v1)
8001250c:	10400007 	beqz	v0,8001252c <sys_ipc_recv+0x34>
80012510:	00a03821 	move	a3,a1
80012514:	3c048001 	lui	a0,0x8001
80012518:	24844644 	addiu	a0,a0,17988
8001251c:	24050117 	li	a1,279
80012520:	3c068001 	lui	a2,0x8001
80012524:	0c004764 	jal	80011d90 <_panic>
80012528:	24c64658 	addiu	a2,a2,18008
8001252c:	3c027f3f 	lui	v0,0x7f3f
80012530:	3442ffff 	ori	v0,v0,0xffff
80012534:	0045102b 	sltu	v0,v0,a1
80012538:	10400007 	beqz	v0,80012558 <sys_ipc_recv+0x60>
8001253c:	24020001 	li	v0,1
80012540:	3c048001 	lui	a0,0x8001
80012544:	24844644 	addiu	a0,a0,17988
80012548:	2405011a 	li	a1,282
8001254c:	3c068001 	lui	a2,0x8001
80012550:	0c004764 	jal	80011d90 <_panic>
80012554:	24c6466c 	addiu	a2,a2,18028
80012558:	ac6200c0 	sw	v0,192(v1)
8001255c:	3c038001 	lui	v1,0x8001
80012560:	8c627524 	lw	v0,29988(v1)
80012564:	ac4500c4 	sw	a1,196(v0)
80012568:	8c637524 	lw	v1,29988(v1)
8001256c:	24020002 	li	v0,2
80012570:	ac6200ac 	sw	v0,172(v1)
80012574:	3c028001 	lui	v0,0x8001
80012578:	8c447500 	lw	a0,29952(v0)
8001257c:	2484ff64 	addiu	a0,a0,-156
80012580:	3c0581ff 	lui	a1,0x81ff
80012584:	34a5ff64 	ori	a1,a1,0xff64
80012588:	0c004049 	jal	80010124 <bcopy>
8001258c:	2406009c 	li	a2,156
80012590:	0c004780 	jal	80011e00 <sched_yield>
80012594:	00000000 	nop
80012598:	8fbf0010 	lw	ra,16(sp)
8001259c:	03e00008 	jr	ra
800125a0:	27bd0018 	addiu	sp,sp,24

800125a4 <sys_ipc_can_send>:
800125a4:	27bdffd0 	addiu	sp,sp,-48
800125a8:	afbf0028 	sw	ra,40(sp)
800125ac:	afb30024 	sw	s3,36(sp)
800125b0:	afb20020 	sw	s2,32(sp)
800125b4:	afb1001c 	sw	s1,28(sp)
800125b8:	afb00018 	sw	s0,24(sp)
800125bc:	00c09021 	move	s2,a2
800125c0:	00e08021 	move	s0,a3
800125c4:	8fb10040 	lw	s1,64(sp)
800125c8:	00a02021 	move	a0,a1
800125cc:	27a50010 	addiu	a1,sp,16
800125d0:	0c0040df 	jal	8001037c <envid2env1>
800125d4:	00003021 	move	a2,zero
800125d8:	04400037 	bltz	v0,800126b8 <sys_ipc_can_send+0x114>
800125dc:	8fbf0028 	lw	ra,40(sp)
800125e0:	8fa30010 	lw	v1,16(sp)
800125e4:	8c6200c0 	lw	v0,192(v1)
800125e8:	10400033 	beqz	v0,800126b8 <sys_ipc_can_send+0x114>
800125ec:	2402fffa 	li	v0,-6
800125f0:	12000022 	beqz	s0,8001267c <sys_ipc_can_send+0xd8>
800125f4:	00000000 	nop
800125f8:	8c6200c4 	lw	v0,196(v1)
800125fc:	1040001f 	beqz	v0,8001267c <sys_ipc_can_send+0xd8>
80012600:	3c027f3f 	lui	v0,0x7f3f
80012604:	3442ffff 	ori	v0,v0,0xffff
80012608:	0050102b 	sltu	v0,v0,s0
8001260c:	1440002a 	bnez	v0,800126b8 <sys_ipc_can_send+0x114>
80012610:	2402fffd 	li	v0,-3
80012614:	3c138001 	lui	s3,0x8001
80012618:	8e627524 	lw	v0,29988(s3)
8001261c:	8c4400b0 	lw	a0,176(v0)
80012620:	02002821 	move	a1,s0
80012624:	0c004cb2 	jal	800132c8 <page_lookup>
80012628:	00003021 	move	a2,zero
8001262c:	14400009 	bnez	v0,80012654 <sys_ipc_can_send+0xb0>
80012630:	00402821 	move	a1,v0
80012634:	8e627524 	lw	v0,29988(s3)
80012638:	3c048001 	lui	a0,0x8001
8001263c:	24844680 	addiu	a0,a0,18048
80012640:	8c4500a4 	lw	a1,164(v0)
80012644:	0c004755 	jal	80011d54 <printf>
80012648:	02003021 	move	a2,s0
8001264c:	10000019 	b	800126b4 <sys_ipc_can_send+0x110>
80012650:	2402fffd 	li	v0,-3
80012654:	8fa20010 	lw	v0,16(sp)
80012658:	8c4400b0 	lw	a0,176(v0)
8001265c:	8c4600c4 	lw	a2,196(v0)
80012660:	0c004c4d 	jal	80013134 <page_insert>
80012664:	02203821 	move	a3,s1
80012668:	04400013 	bltz	v0,800126b8 <sys_ipc_can_send+0x114>
8001266c:	8fbf0028 	lw	ra,40(sp)
80012670:	8fa20010 	lw	v0,16(sp)
80012674:	10000002 	b	80012680 <sys_ipc_can_send+0xdc>
80012678:	ac5100c8 	sw	s1,200(v0)
8001267c:	ac6000c8 	sw	zero,200(v1)
80012680:	8fa20010 	lw	v0,16(sp)
80012684:	ac4000c0 	sw	zero,192(v0)
80012688:	3c028001 	lui	v0,0x8001
8001268c:	8c427524 	lw	v0,29988(v0)
80012690:	8c4300a4 	lw	v1,164(v0)
80012694:	8fa20010 	lw	v0,16(sp)
80012698:	ac4300bc 	sw	v1,188(v0)
8001269c:	8fa20010 	lw	v0,16(sp)
800126a0:	ac5200b8 	sw	s2,184(v0)
800126a4:	24030001 	li	v1,1
800126a8:	8fa20010 	lw	v0,16(sp)
800126ac:	ac4300ac 	sw	v1,172(v0)
800126b0:	00001021 	move	v0,zero
800126b4:	8fbf0028 	lw	ra,40(sp)
800126b8:	8fb30024 	lw	s3,36(sp)
800126bc:	8fb20020 	lw	s2,32(sp)
800126c0:	8fb1001c 	lw	s1,28(sp)
800126c4:	8fb00018 	lw	s0,24(sp)
800126c8:	03e00008 	jr	ra
800126cc:	27bd0030 	addiu	sp,sp,48

800126d0 <trap_init>:
800126d0:	27bdffe0 	addiu	sp,sp,-32
800126d4:	afbf001c 	sw	ra,28(sp)
800126d8:	afb20018 	sw	s2,24(sp)
800126dc:	afb10014 	sw	s1,20(sp)
800126e0:	afb00010 	sw	s0,16(sp)
800126e4:	00008021 	move	s0,zero
800126e8:	3c128001 	lui	s2,0x8001
800126ec:	24110020 	li	s1,32
800126f0:	02002021 	move	a0,s0
800126f4:	0c0049db 	jal	8001276c <set_except_vector>
800126f8:	26451000 	addiu	a1,s2,4096
800126fc:	26100001 	addiu	s0,s0,1
80012700:	1611fffc 	bne	s0,s1,800126f4 <trap_init+0x24>
80012704:	02002021 	move	a0,s0
80012708:	00002021 	move	a0,zero
8001270c:	3c058001 	lui	a1,0x8001
80012710:	0c0049db 	jal	8001276c <set_except_vector>
80012714:	24a50dc0 	addiu	a1,a1,3520
80012718:	24040001 	li	a0,1
8001271c:	3c058001 	lui	a1,0x8001
80012720:	0c0049db 	jal	8001276c <set_except_vector>
80012724:	24a51280 	addiu	a1,a1,4736
80012728:	24040002 	li	a0,2
8001272c:	3c108001 	lui	s0,0x8001
80012730:	0c0049db 	jal	8001276c <set_except_vector>
80012734:	26051140 	addiu	a1,s0,4416
80012738:	24040003 	li	a0,3
8001273c:	0c0049db 	jal	8001276c <set_except_vector>
80012740:	26051140 	addiu	a1,s0,4416
80012744:	24040008 	li	a0,8
80012748:	3c058001 	lui	a1,0x8001
8001274c:	0c0049db 	jal	8001276c <set_except_vector>
80012750:	24a51e50 	addiu	a1,a1,7760
80012754:	8fbf001c 	lw	ra,28(sp)
80012758:	8fb20018 	lw	s2,24(sp)
8001275c:	8fb10014 	lw	s1,20(sp)
80012760:	8fb00010 	lw	s0,16(sp)
80012764:	03e00008 	jr	ra
80012768:	27bd0020 	addiu	sp,sp,32

8001276c <set_except_vector>:
8001276c:	00042080 	sll	a0,a0,0x2
80012770:	3c028001 	lui	v0,0x8001
80012774:	24427540 	addiu	v0,v0,30016
80012778:	00822021 	addu	a0,a0,v0
8001277c:	8c820000 	lw	v0,0(a0)
80012780:	03e00008 	jr	ra
80012784:	ac850000 	sw	a1,0(a0)

80012788 <page_fault_handler>:
80012788:	27bdff48 	addiu	sp,sp,-184
8001278c:	afbf00b4 	sw	ra,180(sp)
80012790:	afb000b0 	sw	s0,176(sp)
80012794:	00808021 	move	s0,a0
80012798:	27a50010 	addiu	a1,sp,16
8001279c:	0c004049 	jal	80010124 <bcopy>
800127a0:	2406009c 	li	a2,156
800127a4:	8e050074 	lw	a1,116(s0)
800127a8:	3c028001 	lui	v0,0x8001
800127ac:	8c427524 	lw	v0,29988(v0)
800127b0:	8c4300d0 	lw	v1,208(v0)
800127b4:	2462f000 	addiu	v0,v1,-4096
800127b8:	00a2102b 	sltu	v0,a1,v0
800127bc:	1440000a 	bnez	v0,800127e8 <page_fault_handler+0x60>
800127c0:	2462ffff 	addiu	v0,v1,-1
800127c4:	0045102b 	sltu	v0,v0,a1
800127c8:	14400007 	bnez	v0,800127e8 <page_fault_handler+0x60>
800127cc:	24a5ff64 	addiu	a1,a1,-156
800127d0:	ae050074 	sw	a1,116(s0)
800127d4:	27a40010 	addiu	a0,sp,16
800127d8:	0c004049 	jal	80010124 <bcopy>
800127dc:	2406009c 	li	a2,156
800127e0:	1000000b 	b	80012810 <page_fault_handler+0x88>
800127e4:	3c028001 	lui	v0,0x8001
800127e8:	2462ff64 	addiu	v0,v1,-156
800127ec:	ae020074 	sw	v0,116(s0)
800127f0:	3c028001 	lui	v0,0x8001
800127f4:	8c427524 	lw	v0,29988(v0)
800127f8:	8c4500d0 	lw	a1,208(v0)
800127fc:	27a40010 	addiu	a0,sp,16
80012800:	24a5ff64 	addiu	a1,a1,-156
80012804:	0c004049 	jal	80010124 <bcopy>
80012808:	2406009c 	li	a2,156
8001280c:	3c028001 	lui	v0,0x8001
80012810:	8c427524 	lw	v0,29988(v0)
80012814:	8c4200cc 	lw	v0,204(v0)
80012818:	ae020094 	sw	v0,148(s0)
8001281c:	8fbf00b4 	lw	ra,180(sp)
80012820:	8fb000b0 	lw	s0,176(sp)
80012824:	03e00008 	jr	ra
80012828:	27bd00b8 	addiu	sp,sp,184
8001282c:	00000000 	nop

80012830 <mips_detect_memory>:
80012830:	27bdffe0 	addiu	sp,sp,-32
80012834:	afbf0018 	sw	ra,24(sp)
80012838:	afb10014 	sw	s1,20(sp)
8001283c:	afb00010 	sw	s0,16(sp)
80012840:	3c118001 	lui	s1,0x8001
80012844:	3c030400 	lui	v1,0x400
80012848:	ae2375cc 	sw	v1,30156(s1)
8001284c:	3c108001 	lui	s0,0x8001
80012850:	ae0075d0 	sw	zero,30160(s0)
80012854:	3c028001 	lui	v0,0x8001
80012858:	ac4375c8 	sw	v1,30152(v0)
8001285c:	24034000 	li	v1,16384
80012860:	3c028001 	lui	v0,0x8001
80012864:	ac4375c0 	sw	v1,30144(v0)
80012868:	3c048001 	lui	a0,0x8001
8001286c:	248446b4 	addiu	a0,a0,18100
80012870:	0c004755 	jal	80011d54 <printf>
80012874:	3c050001 	lui	a1,0x1
80012878:	8e2575cc 	lw	a1,30156(s1)
8001287c:	8e0675d0 	lw	a2,30160(s0)
80012880:	3c048001 	lui	a0,0x8001
80012884:	248446d8 	addiu	a0,a0,18136
80012888:	00052a82 	srl	a1,a1,0xa
8001288c:	0c004755 	jal	80011d54 <printf>
80012890:	00063282 	srl	a2,a2,0xa
80012894:	8fbf0018 	lw	ra,24(sp)
80012898:	8fb10014 	lw	s1,20(sp)
8001289c:	8fb00010 	lw	s0,16(sp)
800128a0:	03e00008 	jr	ra
800128a4:	27bd0020 	addiu	sp,sp,32

800128a8 <alloc>:
800128a8:	27bdffd8 	addiu	sp,sp,-40
800128ac:	afbf0020 	sw	ra,32(sp)
800128b0:	afb3001c 	sw	s3,28(sp)
800128b4:	afb20018 	sw	s2,24(sp)
800128b8:	afb10014 	sw	s1,20(sp)
800128bc:	afb00010 	sw	s0,16(sp)
800128c0:	00809021 	move	s2,a0
800128c4:	00a08821 	move	s1,a1
800128c8:	3c038001 	lui	v1,0x8001
800128cc:	8c627530 	lw	v0,30000(v1)
800128d0:	14400004 	bnez	v0,800128e4 <alloc+0x3c>
800128d4:	00c09821 	move	s3,a2
800128d8:	3c028040 	lui	v0,0x8040
800128dc:	24420000 	addiu	v0,v0,0
800128e0:	ac627530 	sw	v0,30000(v1)
800128e4:	3c108001 	lui	s0,0x8001
800128e8:	3c048001 	lui	a0,0x8001
800128ec:	248446f4 	addiu	a0,a0,18164
800128f0:	0c004755 	jal	80011d54 <printf>
800128f4:	8e057530 	lw	a1,30000(s0)
800128f8:	8e027530 	lw	v0,30000(s0)
800128fc:	02221021 	addu	v0,s1,v0
80012900:	2442ffff 	addiu	v0,v0,-1
80012904:	00111823 	negu	v1,s1
80012908:	00438824 	and	s1,v0,v1
8001290c:	02322821 	addu	a1,s1,s2
80012910:	ae057530 	sw	a1,30000(s0)
80012914:	3c048001 	lui	a0,0x8001
80012918:	0c004755 	jal	80011d54 <printf>
8001291c:	2484470c 	addiu	a0,a0,18188
80012920:	8e077530 	lw	a3,30000(s0)
80012924:	04e00007 	bltz	a3,80012944 <alloc+0x9c>
80012928:	3c028000 	lui	v0,0x8000
8001292c:	3c048001 	lui	a0,0x8001
80012930:	24844714 	addiu	a0,a0,18196
80012934:	24050038 	li	a1,56
80012938:	3c068001 	lui	a2,0x8001
8001293c:	0c004764 	jal	80011d90 <_panic>
80012940:	24c64554 	addiu	a2,a2,17748
80012944:	00e21021 	addu	v0,a3,v0
80012948:	3c038001 	lui	v1,0x8001
8001294c:	8c6375c8 	lw	v1,30152(v1)
80012950:	0043102b 	sltu	v0,v0,v1
80012954:	14400006 	bnez	v0,80012970 <alloc+0xc8>
80012958:	3c048001 	lui	a0,0x8001
8001295c:	24844714 	addiu	a0,a0,18196
80012960:	2405003a 	li	a1,58
80012964:	3c068001 	lui	a2,0x8001
80012968:	0c004764 	jal	80011d90 <_panic>
8001296c:	24c6471c 	addiu	a2,a2,18204
80012970:	12600005 	beqz	s3,80012988 <alloc+0xe0>
80012974:	02201021 	move	v0,s1
80012978:	02202021 	move	a0,s1
8001297c:	0c004060 	jal	80010180 <bzero>
80012980:	02402821 	move	a1,s2
80012984:	02201021 	move	v0,s1
80012988:	8fbf0020 	lw	ra,32(sp)
8001298c:	8fb3001c 	lw	s3,28(sp)
80012990:	8fb20018 	lw	s2,24(sp)
80012994:	8fb10014 	lw	s1,20(sp)
80012998:	8fb00010 	lw	s0,16(sp)
8001299c:	03e00008 	jr	ra
800129a0:	27bd0028 	addiu	sp,sp,40

800129a4 <boot_pgdir_walk>:
800129a4:	27bdffe0 	addiu	sp,sp,-32
800129a8:	afbf0018 	sw	ra,24(sp)
800129ac:	afb10014 	sw	s1,20(sp)
800129b0:	afb00010 	sw	s0,16(sp)
800129b4:	00051582 	srl	v0,a1,0x16
800129b8:	00021080 	sll	v0,v0,0x2
800129bc:	00448021 	addu	s0,v0,a0
800129c0:	8e040000 	lw	a0,0(s0)
800129c4:	2402f000 	li	v0,-4096
800129c8:	00823824 	and	a3,a0,v0
800129cc:	00071302 	srl	v0,a3,0xc
800129d0:	3c038001 	lui	v1,0x8001
800129d4:	8c6375c0 	lw	v1,30144(v1)
800129d8:	0043102b 	sltu	v0,v0,v1
800129dc:	14400007 	bnez	v0,800129fc <boot_pgdir_walk+0x58>
800129e0:	00a08821 	move	s1,a1
800129e4:	3c048001 	lui	a0,0x8001
800129e8:	24844714 	addiu	a0,a0,18196
800129ec:	2405004f 	li	a1,79
800129f0:	3c068001 	lui	a2,0x8001
800129f4:	0c004764 	jal	80011d90 <_panic>
800129f8:	24c64530 	addiu	a2,a2,17712
800129fc:	3c028000 	lui	v0,0x8000
80012a00:	14800013 	bnez	a0,80012a50 <boot_pgdir_walk+0xac>
80012a04:	00e23821 	addu	a3,a3,v0
80012a08:	10c00014 	beqz	a2,80012a5c <boot_pgdir_walk+0xb8>
80012a0c:	00001021 	move	v0,zero
80012a10:	24041000 	li	a0,4096
80012a14:	24051000 	li	a1,4096
80012a18:	0c004a2a 	jal	800128a8 <alloc>
80012a1c:	24060001 	li	a2,1
80012a20:	04400007 	bltz	v0,80012a40 <boot_pgdir_walk+0x9c>
80012a24:	00403821 	move	a3,v0
80012a28:	3c048001 	lui	a0,0x8001
80012a2c:	24844714 	addiu	a0,a0,18196
80012a30:	24050057 	li	a1,87
80012a34:	3c068001 	lui	a2,0x8001
80012a38:	0c004764 	jal	80011d90 <_panic>
80012a3c:	24c64554 	addiu	a2,a2,17748
80012a40:	3c028000 	lui	v0,0x8000
80012a44:	00e21021 	addu	v0,a3,v0
80012a48:	34420600 	ori	v0,v0,0x600
80012a4c:	ae020000 	sw	v0,0(s0)
80012a50:	00111282 	srl	v0,s1,0xa
80012a54:	30420ffc 	andi	v0,v0,0xffc
80012a58:	00e21021 	addu	v0,a3,v0
80012a5c:	8fbf0018 	lw	ra,24(sp)
80012a60:	8fb10014 	lw	s1,20(sp)
80012a64:	8fb00010 	lw	s0,16(sp)
80012a68:	03e00008 	jr	ra
80012a6c:	27bd0020 	addiu	sp,sp,32

80012a70 <boot_map_segment>:
80012a70:	27bdffc8 	addiu	sp,sp,-56
80012a74:	afbf0030 	sw	ra,48(sp)
80012a78:	afb7002c 	sw	s7,44(sp)
80012a7c:	afb60028 	sw	s6,40(sp)
80012a80:	afb50024 	sw	s5,36(sp)
80012a84:	afb40020 	sw	s4,32(sp)
80012a88:	afb3001c 	sw	s3,28(sp)
80012a8c:	afb20018 	sw	s2,24(sp)
80012a90:	afb10014 	sw	s1,20(sp)
80012a94:	afb00010 	sw	s0,16(sp)
80012a98:	0080b021 	move	s6,a0
80012a9c:	00a0a021 	move	s4,a1
80012aa0:	00c08821 	move	s1,a2
80012aa4:	00e0a821 	move	s5,a3
80012aa8:	30c20fff 	andi	v0,a2,0xfff
80012aac:	10400007 	beqz	v0,80012acc <boot_map_segment+0x5c>
80012ab0:	8fb70048 	lw	s7,72(sp)
80012ab4:	3c048001 	lui	a0,0x8001
80012ab8:	24844714 	addiu	a0,a0,18196
80012abc:	2405006c 	li	a1,108
80012ac0:	3c068001 	lui	a2,0x8001
80012ac4:	0c004764 	jal	80011d90 <_panic>
80012ac8:	24c6472c 	addiu	a2,a2,18220
80012acc:	10c0000e 	beqz	a2,80012b08 <boot_map_segment+0x98>
80012ad0:	36f20200 	ori	s2,s7,0x200
80012ad4:	00009821 	move	s3,zero
80012ad8:	00008021 	move	s0,zero
80012adc:	02c02021 	move	a0,s6
80012ae0:	02142821 	addu	a1,s0,s4
80012ae4:	0c004a69 	jal	800129a4 <boot_pgdir_walk>
80012ae8:	24060001 	li	a2,1
80012aec:	02151821 	addu	v1,s0,s5
80012af0:	00721825 	or	v1,v1,s2
80012af4:	ac430000 	sw	v1,0(v0)
80012af8:	26701000 	addiu	s0,s3,4096
80012afc:	0211102b 	sltu	v0,s0,s1
80012b00:	1440fff6 	bnez	v0,80012adc <boot_map_segment+0x6c>
80012b04:	02009821 	move	s3,s0
80012b08:	00141d82 	srl	v1,s4,0x16
80012b0c:	00031880 	sll	v1,v1,0x2
80012b10:	02c31821 	addu	v1,s6,v1
80012b14:	8c620000 	lw	v0,0(v1)
80012b18:	02e21025 	or	v0,s7,v0
80012b1c:	ac620000 	sw	v0,0(v1)
80012b20:	8fbf0030 	lw	ra,48(sp)
80012b24:	8fb7002c 	lw	s7,44(sp)
80012b28:	8fb60028 	lw	s6,40(sp)
80012b2c:	8fb50024 	lw	s5,36(sp)
80012b30:	8fb40020 	lw	s4,32(sp)
80012b34:	8fb3001c 	lw	s3,28(sp)
80012b38:	8fb20018 	lw	s2,24(sp)
80012b3c:	8fb10014 	lw	s1,20(sp)
80012b40:	8fb00010 	lw	s0,16(sp)
80012b44:	03e00008 	jr	ra
80012b48:	27bd0038 	addiu	sp,sp,56

80012b4c <mips_vm_init>:
80012b4c:	27bdffd8 	addiu	sp,sp,-40
80012b50:	afbf0020 	sw	ra,32(sp)
80012b54:	afb1001c 	sw	s1,28(sp)
80012b58:	afb00018 	sw	s0,24(sp)
80012b5c:	24041000 	li	a0,4096
80012b60:	24051000 	li	a1,4096
80012b64:	0c004a2a 	jal	800128a8 <alloc>
80012b68:	24060001 	li	a2,1
80012b6c:	00408821 	move	s1,v0
80012b70:	3c028001 	lui	v0,0x8001
80012b74:	ac514b80 	sw	s1,19328(v0)
80012b78:	3c028001 	lui	v0,0x8001
80012b7c:	ac5175c4 	sw	s1,30148(v0)
80012b80:	3c108001 	lui	s0,0x8001
80012b84:	8e0475c0 	lw	a0,30144(s0)
80012b88:	00041080 	sll	v0,a0,0x2
80012b8c:	00042100 	sll	a0,a0,0x4
80012b90:	00822023 	subu	a0,a0,v0
80012b94:	24051000 	li	a1,4096
80012b98:	0c004a2a 	jal	800128a8 <alloc>
80012b9c:	24060001 	li	a2,1
80012ba0:	3c038001 	lui	v1,0x8001
80012ba4:	ac6275d4 	sw	v0,30164(v1)
80012ba8:	8e0375c0 	lw	v1,30144(s0)
80012bac:	00032080 	sll	a0,v1,0x2
80012bb0:	00031900 	sll	v1,v1,0x4
80012bb4:	00641823 	subu	v1,v1,a0
80012bb8:	24630fff 	addiu	v1,v1,4095
80012bbc:	2404f000 	li	a0,-4096
80012bc0:	00643024 	and	a2,v1,a0
80012bc4:	04400008 	bltz	v0,80012be8 <mips_vm_init+0x9c>
80012bc8:	00404021 	move	t0,v0
80012bcc:	3c048001 	lui	a0,0x8001
80012bd0:	24844714 	addiu	a0,a0,18196
80012bd4:	24050096 	li	a1,150
80012bd8:	3c068001 	lui	a2,0x8001
80012bdc:	24c64554 	addiu	a2,a2,17748
80012be0:	0c004764 	jal	80011d90 <_panic>
80012be4:	00403821 	move	a3,v0
80012be8:	24020400 	li	v0,1024
80012bec:	afa20010 	sw	v0,16(sp)
80012bf0:	02202021 	move	a0,s1
80012bf4:	3c057f80 	lui	a1,0x7f80
80012bf8:	3c078000 	lui	a3,0x8000
80012bfc:	0c004a9c 	jal	80012a70 <boot_map_segment>
80012c00:	01073821 	addu	a3,t0,a3
80012c04:	3c040003 	lui	a0,0x3
80012c08:	34846000 	ori	a0,a0,0x6000
80012c0c:	24051000 	li	a1,4096
80012c10:	0c004a2a 	jal	800128a8 <alloc>
80012c14:	24060001 	li	a2,1
80012c18:	3c038001 	lui	v1,0x8001
80012c1c:	ac627520 	sw	v0,29984(v1)
80012c20:	04400008 	bltz	v0,80012c44 <mips_vm_init+0xf8>
80012c24:	00401821 	move	v1,v0
80012c28:	3c048001 	lui	a0,0x8001
80012c2c:	24844714 	addiu	a0,a0,18196
80012c30:	2405009a 	li	a1,154
80012c34:	3c068001 	lui	a2,0x8001
80012c38:	24c64554 	addiu	a2,a2,17748
80012c3c:	0c004764 	jal	80011d90 <_panic>
80012c40:	00403821 	move	a3,v0
80012c44:	24020400 	li	v0,1024
80012c48:	afa20010 	sw	v0,16(sp)
80012c4c:	02202021 	move	a0,s1
80012c50:	3c057f40 	lui	a1,0x7f40
80012c54:	3c060003 	lui	a2,0x3
80012c58:	34c66000 	ori	a2,a2,0x6000
80012c5c:	3c078000 	lui	a3,0x8000
80012c60:	0c004a9c 	jal	80012a70 <boot_map_segment>
80012c64:	00673821 	addu	a3,v1,a3
80012c68:	8fbf0020 	lw	ra,32(sp)
80012c6c:	8fb1001c 	lw	s1,28(sp)
80012c70:	8fb00018 	lw	s0,24(sp)
80012c74:	03e00008 	jr	ra
80012c78:	27bd0028 	addiu	sp,sp,40

80012c7c <page_init>:
80012c7c:	27bdffe0 	addiu	sp,sp,-32
80012c80:	afbf0018 	sw	ra,24(sp)
80012c84:	afb10014 	sw	s1,20(sp)
80012c88:	afb00010 	sw	s0,16(sp)
80012c8c:	3c028001 	lui	v0,0x8001
80012c90:	ac407534 	sw	zero,30004(v0)
80012c94:	3c108001 	lui	s0,0x8001
80012c98:	3c118001 	lui	s1,0x8001
80012c9c:	26244750 	addiu	a0,s1,18256
80012ca0:	0c004755 	jal	80011d54 <printf>
80012ca4:	8e057530 	lw	a1,30000(s0)
80012ca8:	8e057530 	lw	a1,30000(s0)
80012cac:	24a50fff 	addiu	a1,a1,4095
80012cb0:	2402f000 	li	v0,-4096
80012cb4:	00a22824 	and	a1,a1,v0
80012cb8:	ae057530 	sw	a1,30000(s0)
80012cbc:	0c004755 	jal	80011d54 <printf>
80012cc0:	26244750 	addiu	a0,s1,18256
80012cc4:	8e077530 	lw	a3,30000(s0)
80012cc8:	04e00060 	bltz	a3,80012e4c <page_init+0x1d0>
80012ccc:	3c028000 	lui	v0,0x8000
80012cd0:	1000000c 	b	80012d04 <page_init+0x88>
80012cd4:	3c048001 	lui	a0,0x8001
80012cd8:	00002821 	move	a1,zero
80012cdc:	3c028001 	lui	v0,0x8001
80012ce0:	8c4275d4 	lw	v0,30164(v0)
80012ce4:	00441021 	addu	v0,v0,a0
80012ce8:	24030001 	li	v1,1
80012cec:	a4430008 	sh	v1,8(v0)
80012cf0:	3c028001 	lui	v0,0x8001
80012cf4:	8c477530 	lw	a3,30000(v0)
80012cf8:	04e00007 	bltz	a3,80012d18 <page_init+0x9c>
80012cfc:	24a50001 	addiu	a1,a1,1
80012d00:	3c048001 	lui	a0,0x8001
80012d04:	24844714 	addiu	a0,a0,18196
80012d08:	240500ad 	li	a1,173
80012d0c:	3c068001 	lui	a2,0x8001
80012d10:	0c004764 	jal	80011d90 <_panic>
80012d14:	24c64554 	addiu	a2,a2,17748
80012d18:	3c028000 	lui	v0,0x8000
80012d1c:	00e21021 	addu	v0,a3,v0
80012d20:	00021302 	srl	v0,v0,0xc
80012d24:	00a2102b 	sltu	v0,a1,v0
80012d28:	1440ffec 	bnez	v0,80012cdc <page_init+0x60>
80012d2c:	2484000c 	addiu	a0,a0,12
80012d30:	3c048001 	lui	a0,0x8001
80012d34:	24844760 	addiu	a0,a0,18272
80012d38:	0c004755 	jal	80011d54 <printf>
80012d3c:	24a5ffff 	addiu	a1,a1,-1
80012d40:	3c028001 	lui	v0,0x8001
80012d44:	8c477530 	lw	a3,30000(v0)
80012d48:	04e00007 	bltz	a3,80012d68 <page_init+0xec>
80012d4c:	3c028000 	lui	v0,0x8000
80012d50:	3c048001 	lui	a0,0x8001
80012d54:	24844714 	addiu	a0,a0,18196
80012d58:	240500b0 	li	a1,176
80012d5c:	3c068001 	lui	a2,0x8001
80012d60:	0c004764 	jal	80011d90 <_panic>
80012d64:	24c64554 	addiu	a2,a2,17748
80012d68:	00e21021 	addu	v0,a3,v0
80012d6c:	00023b02 	srl	a3,v0,0xc
80012d70:	3c028001 	lui	v0,0x8001
80012d74:	8c4375c0 	lw	v1,30144(v0)
80012d78:	00e3102b 	sltu	v0,a3,v1
80012d7c:	1040001f 	beqz	v0,80012dfc <page_init+0x180>
80012d80:	3c028001 	lui	v0,0x8001
80012d84:	00071080 	sll	v0,a3,0x2
80012d88:	00071900 	sll	v1,a3,0x4
80012d8c:	00622023 	subu	a0,v1,v0
80012d90:	3c058001 	lui	a1,0x8001
80012d94:	3c088001 	lui	t0,0x8001
80012d98:	250a7534 	addiu	t2,t0,30004
80012d9c:	3c098001 	lui	t1,0x8001
80012da0:	00803021 	move	a2,a0
80012da4:	8ca275d4 	lw	v0,30164(a1)
80012da8:	00441021 	addu	v0,v0,a0
80012dac:	a4400008 	sh	zero,8(v0)
80012db0:	8d037534 	lw	v1,30004(t0)
80012db4:	8ca275d4 	lw	v0,30164(a1)
80012db8:	00441021 	addu	v0,v0,a0
80012dbc:	10600005 	beqz	v1,80012dd4 <page_init+0x158>
80012dc0:	ac430000 	sw	v1,0(v0)
80012dc4:	8d037534 	lw	v1,30004(t0)
80012dc8:	8ca275d4 	lw	v0,30164(a1)
80012dcc:	00821021 	addu	v0,a0,v0
80012dd0:	ac620004 	sw	v0,4(v1)
80012dd4:	8ca275d4 	lw	v0,30164(a1)
80012dd8:	00c21021 	addu	v0,a2,v0
80012ddc:	ad027534 	sw	v0,30004(t0)
80012de0:	ac4a0004 	sw	t2,4(v0)
80012de4:	24e70001 	addiu	a3,a3,1
80012de8:	8d2375c0 	lw	v1,30144(t1)
80012dec:	00e3102b 	sltu	v0,a3,v1
80012df0:	1440ffeb 	bnez	v0,80012da0 <page_init+0x124>
80012df4:	2484000c 	addiu	a0,a0,12
80012df8:	3c028001 	lui	v0,0x8001
80012dfc:	8c477530 	lw	a3,30000(v0)
80012e00:	04e00007 	bltz	a3,80012e20 <page_init+0x1a4>
80012e04:	3c048001 	lui	a0,0x8001
80012e08:	3c048001 	lui	a0,0x8001
80012e0c:	24844714 	addiu	a0,a0,18196
80012e10:	240500b5 	li	a1,181
80012e14:	3c068001 	lui	a2,0x8001
80012e18:	0c004764 	jal	80011d90 <_panic>
80012e1c:	24c64554 	addiu	a2,a2,17748
80012e20:	3c058000 	lui	a1,0x8000
80012e24:	00e52821 	addu	a1,a3,a1
80012e28:	00052b02 	srl	a1,a1,0xc
80012e2c:	24844778 	addiu	a0,a0,18296
80012e30:	0c004755 	jal	80011d54 <printf>
80012e34:	00652823 	subu	a1,v1,a1
80012e38:	8fbf0018 	lw	ra,24(sp)
80012e3c:	8fb10014 	lw	s1,20(sp)
80012e40:	8fb00010 	lw	s0,16(sp)
80012e44:	03e00008 	jr	ra
80012e48:	27bd0020 	addiu	sp,sp,32
80012e4c:	00e21021 	addu	v0,a3,v0
80012e50:	00021302 	srl	v0,v0,0xc
80012e54:	1440ffa0 	bnez	v0,80012cd8 <page_init+0x5c>
80012e58:	00002021 	move	a0,zero
80012e5c:	1000ffb4 	b	80012d30 <page_init+0xb4>
80012e60:	00002821 	move	a1,zero

80012e64 <page_initpp>:
80012e64:	27bdffe8 	addiu	sp,sp,-24
80012e68:	afbf0010 	sw	ra,16(sp)
80012e6c:	0c004060 	jal	80010180 <bzero>
80012e70:	2405000c 	li	a1,12
80012e74:	8fbf0010 	lw	ra,16(sp)
80012e78:	03e00008 	jr	ra
80012e7c:	27bd0018 	addiu	sp,sp,24

80012e80 <page_alloc>:
80012e80:	27bdffe8 	addiu	sp,sp,-24
80012e84:	afbf0014 	sw	ra,20(sp)
80012e88:	afb00010 	sw	s0,16(sp)
80012e8c:	3c028001 	lui	v0,0x8001
80012e90:	8c507534 	lw	s0,30004(v0)
80012e94:	1200002a 	beqz	s0,80012f40 <page_alloc+0xc0>
80012e98:	2402fffc 	li	v0,-4
80012e9c:	ac900000 	sw	s0,0(a0)
80012ea0:	8e030000 	lw	v1,0(s0)
80012ea4:	10600003 	beqz	v1,80012eb4 <page_alloc+0x34>
80012ea8:	00000000 	nop
80012eac:	8e020004 	lw	v0,4(s0)
80012eb0:	ac620004 	sw	v0,4(v1)
80012eb4:	8e030004 	lw	v1,4(s0)
80012eb8:	8e020000 	lw	v0,0(s0)
80012ebc:	ac620000 	sw	v0,0(v1)
80012ec0:	0c004b99 	jal	80012e64 <page_initpp>
80012ec4:	8c840000 	lw	a0,0(a0)
80012ec8:	3c028001 	lui	v0,0x8001
80012ecc:	8c4375d4 	lw	v1,30164(v0)
80012ed0:	02031823 	subu	v1,s0,v1
80012ed4:	00031883 	sra	v1,v1,0x2
80012ed8:	00031080 	sll	v0,v1,0x2
80012edc:	00431021 	addu	v0,v0,v1
80012ee0:	00021900 	sll	v1,v0,0x4
80012ee4:	00431021 	addu	v0,v0,v1
80012ee8:	00021a00 	sll	v1,v0,0x8
80012eec:	00431021 	addu	v0,v0,v1
80012ef0:	00021c00 	sll	v1,v0,0x10
80012ef4:	00431021 	addu	v0,v0,v1
80012ef8:	00021023 	negu	v0,v0
80012efc:	00023b00 	sll	a3,v0,0xc
80012f00:	00071302 	srl	v0,a3,0xc
80012f04:	3c038001 	lui	v1,0x8001
80012f08:	8c6375c0 	lw	v1,30144(v1)
80012f0c:	0043102b 	sltu	v0,v0,v1
80012f10:	14400007 	bnez	v0,80012f30 <page_alloc+0xb0>
80012f14:	3c048000 	lui	a0,0x8000
80012f18:	3c048001 	lui	a0,0x8001
80012f1c:	24844714 	addiu	a0,a0,18196
80012f20:	240500d1 	li	a1,209
80012f24:	3c068001 	lui	a2,0x8001
80012f28:	0c004764 	jal	80011d90 <_panic>
80012f2c:	24c64530 	addiu	a2,a2,17712
80012f30:	00e42021 	addu	a0,a3,a0
80012f34:	0c004060 	jal	80010180 <bzero>
80012f38:	24051000 	li	a1,4096
80012f3c:	00001021 	move	v0,zero
80012f40:	8fbf0014 	lw	ra,20(sp)
80012f44:	8fb00010 	lw	s0,16(sp)
80012f48:	03e00008 	jr	ra
80012f4c:	27bd0018 	addiu	sp,sp,24

80012f50 <page_free>:
80012f50:	94820008 	lhu	v0,8(a0)
80012f54:	1440000a 	bnez	v0,80012f80 <page_free+0x30>
80012f58:	3c038001 	lui	v1,0x8001
80012f5c:	8c627534 	lw	v0,30004(v1)
80012f60:	10400003 	beqz	v0,80012f70 <page_free+0x20>
80012f64:	ac820000 	sw	v0,0(a0)
80012f68:	8c627534 	lw	v0,30004(v1)
80012f6c:	ac440004 	sw	a0,4(v0)
80012f70:	3c028001 	lui	v0,0x8001
80012f74:	ac447534 	sw	a0,30004(v0)
80012f78:	24427534 	addiu	v0,v0,30004
80012f7c:	ac820004 	sw	v0,4(a0)
80012f80:	03e00008 	jr	ra
80012f84:	00000000 	nop

80012f88 <page_decref>:
80012f88:	27bdffe8 	addiu	sp,sp,-24
80012f8c:	afbf0010 	sw	ra,16(sp)
80012f90:	94820008 	lhu	v0,8(a0)
80012f94:	2442ffff 	addiu	v0,v0,-1
80012f98:	3042ffff 	andi	v0,v0,0xffff
80012f9c:	14400003 	bnez	v0,80012fac <page_decref+0x24>
80012fa0:	a4820008 	sh	v0,8(a0)
80012fa4:	0c004bd4 	jal	80012f50 <page_free>
80012fa8:	00000000 	nop
80012fac:	8fbf0010 	lw	ra,16(sp)
80012fb0:	03e00008 	jr	ra
80012fb4:	27bd0018 	addiu	sp,sp,24

80012fb8 <pgdir_walk>:
80012fb8:	27bdffd8 	addiu	sp,sp,-40
80012fbc:	afbf0024 	sw	ra,36(sp)
80012fc0:	afb20020 	sw	s2,32(sp)
80012fc4:	afb1001c 	sw	s1,28(sp)
80012fc8:	afb00018 	sw	s0,24(sp)
80012fcc:	00e08821 	move	s1,a3
80012fd0:	00051582 	srl	v0,a1,0x16
80012fd4:	00021080 	sll	v0,v0,0x2
80012fd8:	00448021 	addu	s0,v0,a0
80012fdc:	8e040000 	lw	a0,0(s0)
80012fe0:	2402f000 	li	v0,-4096
80012fe4:	00823824 	and	a3,a0,v0
80012fe8:	00071302 	srl	v0,a3,0xc
80012fec:	3c038001 	lui	v1,0x8001
80012ff0:	8c6375c0 	lw	v1,30144(v1)
80012ff4:	0043102b 	sltu	v0,v0,v1
80012ff8:	14400007 	bnez	v0,80013018 <pgdir_walk+0x60>
80012ffc:	00a09021 	move	s2,a1
80013000:	3c048001 	lui	a0,0x8001
80013004:	24844714 	addiu	a0,a0,18196
80013008:	24050101 	li	a1,257
8001300c:	3c068001 	lui	a2,0x8001
80013010:	0c004764 	jal	80011d90 <_panic>
80013014:	24c64530 	addiu	a2,a2,17712
80013018:	3c028000 	lui	v0,0x8000
8001301c:	00e23821 	addu	a3,a3,v0
80013020:	30820200 	andi	v0,a0,0x200
80013024:	14400036 	bnez	v0,80013100 <pgdir_walk+0x148>
80013028:	00000000 	nop
8001302c:	14c00003 	bnez	a2,8001303c <pgdir_walk+0x84>
80013030:	00000000 	nop
80013034:	10000039 	b	8001311c <pgdir_walk+0x164>
80013038:	ae200000 	sw	zero,0(s1)
8001303c:	0c004ba0 	jal	80012e80 <page_alloc>
80013040:	27a40010 	addiu	a0,sp,16
80013044:	10400004 	beqz	v0,80013058 <pgdir_walk+0xa0>
80013048:	8fa30010 	lw	v1,16(sp)
8001304c:	ae200000 	sw	zero,0(s1)
80013050:	10000032 	b	8001311c <pgdir_walk+0x164>
80013054:	2402fffc 	li	v0,-4
80013058:	3c028001 	lui	v0,0x8001
8001305c:	8c4275d4 	lw	v0,30164(v0)
80013060:	00621823 	subu	v1,v1,v0
80013064:	00031883 	sra	v1,v1,0x2
80013068:	00031080 	sll	v0,v1,0x2
8001306c:	00431021 	addu	v0,v0,v1
80013070:	00021900 	sll	v1,v0,0x4
80013074:	00431021 	addu	v0,v0,v1
80013078:	00021a00 	sll	v1,v0,0x8
8001307c:	00431021 	addu	v0,v0,v1
80013080:	00021c00 	sll	v1,v0,0x10
80013084:	00431021 	addu	v0,v0,v1
80013088:	00021023 	negu	v0,v0
8001308c:	00023b00 	sll	a3,v0,0xc
80013090:	00071302 	srl	v0,a3,0xc
80013094:	3c038001 	lui	v1,0x8001
80013098:	8c6375c0 	lw	v1,30144(v1)
8001309c:	0043102b 	sltu	v0,v0,v1
800130a0:	14400007 	bnez	v0,800130c0 <pgdir_walk+0x108>
800130a4:	3c028000 	lui	v0,0x8000
800130a8:	3c048001 	lui	a0,0x8001
800130ac:	24844714 	addiu	a0,a0,18196
800130b0:	24050113 	li	a1,275
800130b4:	3c068001 	lui	a2,0x8001
800130b8:	0c004764 	jal	80011d90 <_panic>
800130bc:	24c64530 	addiu	a2,a2,17712
800130c0:	00e23821 	addu	a3,a3,v0
800130c4:	04e00007 	bltz	a3,800130e4 <pgdir_walk+0x12c>
800130c8:	3c028000 	lui	v0,0x8000
800130cc:	3c048001 	lui	a0,0x8001
800130d0:	24844714 	addiu	a0,a0,18196
800130d4:	24050114 	li	a1,276
800130d8:	3c068001 	lui	a2,0x8001
800130dc:	0c004764 	jal	80011d90 <_panic>
800130e0:	24c64554 	addiu	a2,a2,17748
800130e4:	00e21021 	addu	v0,a3,v0
800130e8:	34420600 	ori	v0,v0,0x600
800130ec:	ae020000 	sw	v0,0(s0)
800130f0:	8fa30010 	lw	v1,16(sp)
800130f4:	94620008 	lhu	v0,8(v1)
800130f8:	24420001 	addiu	v0,v0,1
800130fc:	a4620008 	sh	v0,8(v1)
80013100:	12200006 	beqz	s1,8001311c <pgdir_walk+0x164>
80013104:	00001021 	move	v0,zero
80013108:	00121282 	srl	v0,s2,0xa
8001310c:	30420ffc 	andi	v0,v0,0xffc
80013110:	00e21021 	addu	v0,a3,v0
80013114:	ae220000 	sw	v0,0(s1)
80013118:	00001021 	move	v0,zero
8001311c:	8fbf0024 	lw	ra,36(sp)
80013120:	8fb20020 	lw	s2,32(sp)
80013124:	8fb1001c 	lw	s1,28(sp)
80013128:	8fb00018 	lw	s0,24(sp)
8001312c:	03e00008 	jr	ra
80013130:	27bd0028 	addiu	sp,sp,40

80013134 <page_insert>:
80013134:	27bdffd0 	addiu	sp,sp,-48
80013138:	afbf0028 	sw	ra,40(sp)
8001313c:	afb30024 	sw	s3,36(sp)
80013140:	afb20020 	sw	s2,32(sp)
80013144:	afb1001c 	sw	s1,28(sp)
80013148:	afb00018 	sw	s0,24(sp)
8001314c:	00808821 	move	s1,a0
80013150:	00a09021 	move	s2,a1
80013154:	00c08021 	move	s0,a2
80013158:	34f30200 	ori	s3,a3,0x200
8001315c:	00c02821 	move	a1,a2
80013160:	00003021 	move	a2,zero
80013164:	0c004bee 	jal	80012fb8 <pgdir_walk>
80013168:	27a70010 	addiu	a3,sp,16
8001316c:	8fa20010 	lw	v0,16(sp)
80013170:	10400030 	beqz	v0,80013234 <page_insert+0x100>
80013174:	02202021 	move	a0,s1
80013178:	8c470000 	lw	a3,0(v0)
8001317c:	30e20200 	andi	v0,a3,0x200
80013180:	1040002c 	beqz	v0,80013234 <page_insert+0x100>
80013184:	3c028001 	lui	v0,0x8001
80013188:	00072302 	srl	a0,a3,0xc
8001318c:	8c4275c0 	lw	v0,30144(v0)
80013190:	0082102b 	sltu	v0,a0,v0
80013194:	14400007 	bnez	v0,800131b4 <page_insert+0x80>
80013198:	00041880 	sll	v1,a0,0x2
8001319c:	3c048001 	lui	a0,0x8001
800131a0:	2484451c 	addiu	a0,a0,17692
800131a4:	24050029 	li	a1,41
800131a8:	3c068001 	lui	a2,0x8001
800131ac:	0c004764 	jal	80011d90 <_panic>
800131b0:	24c64590 	addiu	a2,a2,17808
800131b4:	00041100 	sll	v0,a0,0x4
800131b8:	00431023 	subu	v0,v0,v1
800131bc:	3c038001 	lui	v1,0x8001
800131c0:	8c6375d4 	lw	v1,30164(v1)
800131c4:	00431021 	addu	v0,v0,v1
800131c8:	12420005 	beq	s2,v0,800131e0 <page_insert+0xac>
800131cc:	02202021 	move	a0,s1
800131d0:	0c004cd8 	jal	80013360 <page_remove>
800131d4:	02002821 	move	a1,s0
800131d8:	10000016 	b	80013234 <page_insert+0x100>
800131dc:	02202021 	move	a0,s1
800131e0:	0c004cf3 	jal	800133cc <tlb_invalidate>
800131e4:	02002821 	move	a1,s0
800131e8:	3c028001 	lui	v0,0x8001
800131ec:	8c4375d4 	lw	v1,30164(v0)
800131f0:	02431823 	subu	v1,s2,v1
800131f4:	00031883 	sra	v1,v1,0x2
800131f8:	00031080 	sll	v0,v1,0x2
800131fc:	00431021 	addu	v0,v0,v1
80013200:	00021900 	sll	v1,v0,0x4
80013204:	00431021 	addu	v0,v0,v1
80013208:	00021a00 	sll	v1,v0,0x8
8001320c:	00431021 	addu	v0,v0,v1
80013210:	00021c00 	sll	v1,v0,0x10
80013214:	00431021 	addu	v0,v0,v1
80013218:	00021023 	negu	v0,v0
8001321c:	00021300 	sll	v0,v0,0xc
80013220:	02621025 	or	v0,s3,v0
80013224:	8fa30010 	lw	v1,16(sp)
80013228:	ac620000 	sw	v0,0(v1)
8001322c:	1000001f 	b	800132ac <page_insert+0x178>
80013230:	00001021 	move	v0,zero
80013234:	0c004cf3 	jal	800133cc <tlb_invalidate>
80013238:	02002821 	move	a1,s0
8001323c:	02202021 	move	a0,s1
80013240:	02002821 	move	a1,s0
80013244:	24060001 	li	a2,1
80013248:	0c004bee 	jal	80012fb8 <pgdir_walk>
8001324c:	27a70010 	addiu	a3,sp,16
80013250:	14400016 	bnez	v0,800132ac <page_insert+0x178>
80013254:	2402fffc 	li	v0,-4
80013258:	3c028001 	lui	v0,0x8001
8001325c:	8c4375d4 	lw	v1,30164(v0)
80013260:	02431823 	subu	v1,s2,v1
80013264:	00031883 	sra	v1,v1,0x2
80013268:	00031080 	sll	v0,v1,0x2
8001326c:	00431021 	addu	v0,v0,v1
80013270:	00021900 	sll	v1,v0,0x4
80013274:	00431021 	addu	v0,v0,v1
80013278:	00021a00 	sll	v1,v0,0x8
8001327c:	00431021 	addu	v0,v0,v1
80013280:	00021c00 	sll	v1,v0,0x10
80013284:	00431021 	addu	v0,v0,v1
80013288:	00021023 	negu	v0,v0
8001328c:	00021300 	sll	v0,v0,0xc
80013290:	02621025 	or	v0,s3,v0
80013294:	8fa30010 	lw	v1,16(sp)
80013298:	ac620000 	sw	v0,0(v1)
8001329c:	96420008 	lhu	v0,8(s2)
800132a0:	24420001 	addiu	v0,v0,1
800132a4:	a6420008 	sh	v0,8(s2)
800132a8:	00001021 	move	v0,zero
800132ac:	8fbf0028 	lw	ra,40(sp)
800132b0:	8fb30024 	lw	s3,36(sp)
800132b4:	8fb20020 	lw	s2,32(sp)
800132b8:	8fb1001c 	lw	s1,28(sp)
800132bc:	8fb00018 	lw	s0,24(sp)
800132c0:	03e00008 	jr	ra
800132c4:	27bd0030 	addiu	sp,sp,48

800132c8 <page_lookup>:
800132c8:	27bdffe0 	addiu	sp,sp,-32
800132cc:	afbf001c 	sw	ra,28(sp)
800132d0:	afb00018 	sw	s0,24(sp)
800132d4:	00c08021 	move	s0,a2
800132d8:	00003021 	move	a2,zero
800132dc:	0c004bee 	jal	80012fb8 <pgdir_walk>
800132e0:	27a70010 	addiu	a3,sp,16
800132e4:	8fa40010 	lw	a0,16(sp)
800132e8:	10800019 	beqz	a0,80013350 <page_lookup+0x88>
800132ec:	00001021 	move	v0,zero
800132f0:	8c870000 	lw	a3,0(a0)
800132f4:	30e20200 	andi	v0,a3,0x200
800132f8:	10400014 	beqz	v0,8001334c <page_lookup+0x84>
800132fc:	00072b02 	srl	a1,a3,0xc
80013300:	3c028001 	lui	v0,0x8001
80013304:	8c4275c0 	lw	v0,30144(v0)
80013308:	00a2102b 	sltu	v0,a1,v0
8001330c:	14400007 	bnez	v0,8001332c <page_lookup+0x64>
80013310:	00051880 	sll	v1,a1,0x2
80013314:	3c048001 	lui	a0,0x8001
80013318:	2484451c 	addiu	a0,a0,17692
8001331c:	24050029 	li	a1,41
80013320:	3c068001 	lui	a2,0x8001
80013324:	0c004764 	jal	80011d90 <_panic>
80013328:	24c64590 	addiu	a2,a2,17808
8001332c:	00051100 	sll	v0,a1,0x4
80013330:	00431023 	subu	v0,v0,v1
80013334:	3c038001 	lui	v1,0x8001
80013338:	8c6375d4 	lw	v1,30164(v1)
8001333c:	12000004 	beqz	s0,80013350 <page_lookup+0x88>
80013340:	00431021 	addu	v0,v0,v1
80013344:	10000002 	b	80013350 <page_lookup+0x88>
80013348:	ae040000 	sw	a0,0(s0)
8001334c:	00001021 	move	v0,zero
80013350:	8fbf001c 	lw	ra,28(sp)
80013354:	8fb00018 	lw	s0,24(sp)
80013358:	03e00008 	jr	ra
8001335c:	27bd0020 	addiu	sp,sp,32

80013360 <page_remove>:
80013360:	27bdffd8 	addiu	sp,sp,-40
80013364:	afbf0020 	sw	ra,32(sp)
80013368:	afb1001c 	sw	s1,28(sp)
8001336c:	afb00018 	sw	s0,24(sp)
80013370:	00808021 	move	s0,a0
80013374:	00a08821 	move	s1,a1
80013378:	0c004cb2 	jal	800132c8 <page_lookup>
8001337c:	27a60010 	addiu	a2,sp,16
80013380:	1040000d 	beqz	v0,800133b8 <page_remove+0x58>
80013384:	00402021 	move	a0,v0
80013388:	94420008 	lhu	v0,8(v0)
8001338c:	2442ffff 	addiu	v0,v0,-1
80013390:	3042ffff 	andi	v0,v0,0xffff
80013394:	14400003 	bnez	v0,800133a4 <page_remove+0x44>
80013398:	a4820008 	sh	v0,8(a0)
8001339c:	0c004bd4 	jal	80012f50 <page_free>
800133a0:	00000000 	nop
800133a4:	8fa20010 	lw	v0,16(sp)
800133a8:	ac400000 	sw	zero,0(v0)
800133ac:	02002021 	move	a0,s0
800133b0:	0c004cf3 	jal	800133cc <tlb_invalidate>
800133b4:	02202821 	move	a1,s1
800133b8:	8fbf0020 	lw	ra,32(sp)
800133bc:	8fb1001c 	lw	s1,28(sp)
800133c0:	8fb00018 	lw	s0,24(sp)
800133c4:	03e00008 	jr	ra
800133c8:	27bd0028 	addiu	sp,sp,40

800133cc <tlb_invalidate>:
800133cc:	27bdffe8 	addiu	sp,sp,-24
800133d0:	afbf0010 	sw	ra,16(sp)
800133d4:	3c028001 	lui	v0,0x8001
800133d8:	8c437524 	lw	v1,29988(v0)
800133dc:	10600009 	beqz	v1,80013404 <tlb_invalidate+0x38>
800133e0:	2402f000 	li	v0,-4096
800133e4:	00a21024 	and	v0,a1,v0
800133e8:	8c6400a4 	lw	a0,164(v1)
800133ec:	000422c2 	srl	a0,a0,0xb
800133f0:	00042180 	sll	a0,a0,0x6
800133f4:	0c005074 	jal	800141d0 <tlb_out>
800133f8:	00442025 	or	a0,v0,a0
800133fc:	10000005 	b	80013414 <tlb_invalidate+0x48>
80013400:	8fbf0010 	lw	ra,16(sp)
80013404:	2404f000 	li	a0,-4096
80013408:	0c005074 	jal	800141d0 <tlb_out>
8001340c:	00a42024 	and	a0,a1,a0
80013410:	8fbf0010 	lw	ra,16(sp)
80013414:	03e00008 	jr	ra
80013418:	27bd0018 	addiu	sp,sp,24

8001341c <page_check>:
8001341c:	27bdffd0 	addiu	sp,sp,-48
80013420:	afbf0028 	sw	ra,40(sp)
80013424:	afb10024 	sw	s1,36(sp)
80013428:	afb00020 	sw	s0,32(sp)
8001342c:	afa0001c 	sw	zero,28(sp)
80013430:	afa00018 	sw	zero,24(sp)
80013434:	afa00014 	sw	zero,20(sp)
80013438:	0c004ba0 	jal	80012e80 <page_alloc>
8001343c:	27a40014 	addiu	a0,sp,20
80013440:	10400008 	beqz	v0,80013464 <page_check+0x48>
80013444:	3c048001 	lui	a0,0x8001
80013448:	24844714 	addiu	a0,a0,18196
8001344c:	24050183 	li	a1,387
80013450:	3c068001 	lui	a2,0x8001
80013454:	24c64788 	addiu	a2,a2,18312
80013458:	3c078001 	lui	a3,0x8001
8001345c:	0c004764 	jal	80011d90 <_panic>
80013460:	24e747a0 	addiu	a3,a3,18336
80013464:	0c004ba0 	jal	80012e80 <page_alloc>
80013468:	27a40018 	addiu	a0,sp,24
8001346c:	10400008 	beqz	v0,80013490 <page_check+0x74>
80013470:	3c048001 	lui	a0,0x8001
80013474:	24844714 	addiu	a0,a0,18196
80013478:	24050184 	li	a1,388
8001347c:	3c068001 	lui	a2,0x8001
80013480:	24c64788 	addiu	a2,a2,18312
80013484:	3c078001 	lui	a3,0x8001
80013488:	0c004764 	jal	80011d90 <_panic>
8001348c:	24e747b8 	addiu	a3,a3,18360
80013490:	0c004ba0 	jal	80012e80 <page_alloc>
80013494:	27a4001c 	addiu	a0,sp,28
80013498:	10400009 	beqz	v0,800134c0 <page_check+0xa4>
8001349c:	8fa40014 	lw	a0,20(sp)
800134a0:	3c048001 	lui	a0,0x8001
800134a4:	24844714 	addiu	a0,a0,18196
800134a8:	24050185 	li	a1,389
800134ac:	3c068001 	lui	a2,0x8001
800134b0:	24c64788 	addiu	a2,a2,18312
800134b4:	3c078001 	lui	a3,0x8001
800134b8:	0c004764 	jal	80011d90 <_panic>
800134bc:	24e747d0 	addiu	a3,a3,18384
800134c0:	14800009 	bnez	a0,800134e8 <page_check+0xcc>
800134c4:	8fa30018 	lw	v1,24(sp)
800134c8:	3c048001 	lui	a0,0x8001
800134cc:	24844714 	addiu	a0,a0,18196
800134d0:	24050187 	li	a1,391
800134d4:	3c068001 	lui	a2,0x8001
800134d8:	24c64788 	addiu	a2,a2,18312
800134dc:	3c078001 	lui	a3,0x8001
800134e0:	0c004764 	jal	80011d90 <_panic>
800134e4:	24e74818 	addiu	a3,a3,18456
800134e8:	10600003 	beqz	v1,800134f8 <page_check+0xdc>
800134ec:	00000000 	nop
800134f0:	14830009 	bne	a0,v1,80013518 <page_check+0xfc>
800134f4:	8fa2001c 	lw	v0,28(sp)
800134f8:	3c048001 	lui	a0,0x8001
800134fc:	24844714 	addiu	a0,a0,18196
80013500:	24050188 	li	a1,392
80013504:	3c068001 	lui	a2,0x8001
80013508:	24c64788 	addiu	a2,a2,18312
8001350c:	3c078001 	lui	a3,0x8001
80013510:	0c004764 	jal	80011d90 <_panic>
80013514:	24e747e8 	addiu	a3,a3,18408
80013518:	10400005 	beqz	v0,80013530 <page_check+0x114>
8001351c:	00000000 	nop
80013520:	10620003 	beq	v1,v0,80013530 <page_check+0x114>
80013524:	00000000 	nop
80013528:	14820009 	bne	a0,v0,80013550 <page_check+0x134>
8001352c:	3c028001 	lui	v0,0x8001
80013530:	3c048001 	lui	a0,0x8001
80013534:	24844714 	addiu	a0,a0,18196
80013538:	24050189 	li	a1,393
8001353c:	3c068001 	lui	a2,0x8001
80013540:	24c64788 	addiu	a2,a2,18312
80013544:	3c078001 	lui	a3,0x8001
80013548:	0c004764 	jal	80011d90 <_panic>
8001354c:	24e747fc 	addiu	a3,a3,18428
80013550:	8c517534 	lw	s1,30004(v0)
80013554:	ac407534 	sw	zero,30004(v0)
80013558:	0c004ba0 	jal	80012e80 <page_alloc>
8001355c:	27a40010 	addiu	a0,sp,16
80013560:	2403fffc 	li	v1,-4
80013564:	10430009 	beq	v0,v1,8001358c <page_check+0x170>
80013568:	3c028001 	lui	v0,0x8001
8001356c:	3c048001 	lui	a0,0x8001
80013570:	24844714 	addiu	a0,a0,18196
80013574:	24050190 	li	a1,400
80013578:	3c068001 	lui	a2,0x8001
8001357c:	24c64788 	addiu	a2,a2,18312
80013580:	3c078001 	lui	a3,0x8001
80013584:	0c004764 	jal	80011d90 <_panic>
80013588:	24e7481c 	addiu	a3,a3,18460
8001358c:	8c4475c4 	lw	a0,30148(v0)
80013590:	8fa50018 	lw	a1,24(sp)
80013594:	00003021 	move	a2,zero
80013598:	0c004c4d 	jal	80013134 <page_insert>
8001359c:	00003821 	move	a3,zero
800135a0:	04400008 	bltz	v0,800135c4 <page_check+0x1a8>
800135a4:	3c048001 	lui	a0,0x8001
800135a8:	24844714 	addiu	a0,a0,18196
800135ac:	24050193 	li	a1,403
800135b0:	3c068001 	lui	a2,0x8001
800135b4:	24c64788 	addiu	a2,a2,18312
800135b8:	3c078001 	lui	a3,0x8001
800135bc:	0c004764 	jal	80011d90 <_panic>
800135c0:	24e7483c 	addiu	a3,a3,18492
800135c4:	0c004bd4 	jal	80012f50 <page_free>
800135c8:	8fa40014 	lw	a0,20(sp)
800135cc:	3c028001 	lui	v0,0x8001
800135d0:	8c4475c4 	lw	a0,30148(v0)
800135d4:	8fa50018 	lw	a1,24(sp)
800135d8:	00003021 	move	a2,zero
800135dc:	0c004c4d 	jal	80013134 <page_insert>
800135e0:	00003821 	move	a3,zero
800135e4:	10400009 	beqz	v0,8001360c <page_check+0x1f0>
800135e8:	3c028001 	lui	v0,0x8001
800135ec:	3c048001 	lui	a0,0x8001
800135f0:	24844714 	addiu	a0,a0,18196
800135f4:	24050197 	li	a1,407
800135f8:	3c068001 	lui	a2,0x8001
800135fc:	24c64788 	addiu	a2,a2,18312
80013600:	3c078001 	lui	a3,0x8001
80013604:	0c004764 	jal	80011d90 <_panic>
80013608:	24e74868 	addiu	a3,a3,18536
8001360c:	8c4475c4 	lw	a0,30148(v0)
80013610:	8c850000 	lw	a1,0(a0)
80013614:	2402f000 	li	v0,-4096
80013618:	00a23824 	and	a3,a1,v0
8001361c:	3c028001 	lui	v0,0x8001
80013620:	8c4675d4 	lw	a2,30164(v0)
80013624:	8fa30014 	lw	v1,20(sp)
80013628:	00661823 	subu	v1,v1,a2
8001362c:	00031883 	sra	v1,v1,0x2
80013630:	00031080 	sll	v0,v1,0x2
80013634:	00431021 	addu	v0,v0,v1
80013638:	00021900 	sll	v1,v0,0x4
8001363c:	00431021 	addu	v0,v0,v1
80013640:	00021a00 	sll	v1,v0,0x8
80013644:	00431021 	addu	v0,v0,v1
80013648:	00021c00 	sll	v1,v0,0x10
8001364c:	00431021 	addu	v0,v0,v1
80013650:	00021023 	negu	v0,v0
80013654:	00021300 	sll	v0,v0,0xc
80013658:	10e20009 	beq	a3,v0,80013680 <page_check+0x264>
8001365c:	30a20200 	andi	v0,a1,0x200
80013660:	3c048001 	lui	a0,0x8001
80013664:	24844714 	addiu	a0,a0,18196
80013668:	24050198 	li	a1,408
8001366c:	3c068001 	lui	a2,0x8001
80013670:	24c64788 	addiu	a2,a2,18312
80013674:	3c078001 	lui	a3,0x8001
80013678:	0c004764 	jal	80011d90 <_panic>
8001367c:	24e74894 	addiu	a3,a3,18580
80013680:	10400013 	beqz	v0,800136d0 <page_check+0x2b4>
80013684:	00071302 	srl	v0,a3,0xc
80013688:	3c038001 	lui	v1,0x8001
8001368c:	8c6375c0 	lw	v1,30144(v1)
80013690:	0043102b 	sltu	v0,v0,v1
80013694:	14400007 	bnez	v0,800136b4 <page_check+0x298>
80013698:	3c028000 	lui	v0,0x8000
8001369c:	3c048001 	lui	a0,0x8001
800136a0:	2484451c 	addiu	a0,a0,17692
800136a4:	2405003c 	li	a1,60
800136a8:	3c068001 	lui	a2,0x8001
800136ac:	0c004764 	jal	80011d90 <_panic>
800136b0:	24c64530 	addiu	a2,a2,17712
800136b4:	00e21021 	addu	v0,a3,v0
800136b8:	8c470000 	lw	a3,0(v0)
800136bc:	30e20200 	andi	v0,a3,0x200
800136c0:	10400003 	beqz	v0,800136d0 <page_check+0x2b4>
800136c4:	2402f000 	li	v0,-4096
800136c8:	10000002 	b	800136d4 <page_check+0x2b8>
800136cc:	00e23824 	and	a3,a3,v0
800136d0:	2407ffff 	li	a3,-1
800136d4:	8fa50018 	lw	a1,24(sp)
800136d8:	00a61823 	subu	v1,a1,a2
800136dc:	00031883 	sra	v1,v1,0x2
800136e0:	00031080 	sll	v0,v1,0x2
800136e4:	00431021 	addu	v0,v0,v1
800136e8:	00021900 	sll	v1,v0,0x4
800136ec:	00431021 	addu	v0,v0,v1
800136f0:	00021a00 	sll	v1,v0,0x8
800136f4:	00431021 	addu	v0,v0,v1
800136f8:	00021c00 	sll	v1,v0,0x10
800136fc:	00431021 	addu	v0,v0,v1
80013700:	00021023 	negu	v0,v0
80013704:	00021300 	sll	v0,v0,0xc
80013708:	10e20009 	beq	a3,v0,80013730 <page_check+0x314>
8001370c:	24020001 	li	v0,1
80013710:	3c048001 	lui	a0,0x8001
80013714:	24844714 	addiu	a0,a0,18196
80013718:	24050199 	li	a1,409
8001371c:	3c068001 	lui	a2,0x8001
80013720:	24c64788 	addiu	a2,a2,18312
80013724:	3c078001 	lui	a3,0x8001
80013728:	0c004764 	jal	80011d90 <_panic>
8001372c:	24e748bc 	addiu	a3,a3,18620
80013730:	94a30008 	lhu	v1,8(a1)
80013734:	10620009 	beq	v1,v0,8001375c <page_check+0x340>
80013738:	8fa5001c 	lw	a1,28(sp)
8001373c:	3c048001 	lui	a0,0x8001
80013740:	24844714 	addiu	a0,a0,18196
80013744:	2405019a 	li	a1,410
80013748:	3c068001 	lui	a2,0x8001
8001374c:	24c64788 	addiu	a2,a2,18312
80013750:	3c078001 	lui	a3,0x8001
80013754:	0c004764 	jal	80011d90 <_panic>
80013758:	24e748e4 	addiu	a3,a3,18660
8001375c:	24061000 	li	a2,4096
80013760:	0c004c4d 	jal	80013134 <page_insert>
80013764:	00003821 	move	a3,zero
80013768:	10400009 	beqz	v0,80013790 <page_check+0x374>
8001376c:	3c028001 	lui	v0,0x8001
80013770:	3c048001 	lui	a0,0x8001
80013774:	24844714 	addiu	a0,a0,18196
80013778:	2405019d 	li	a1,413
8001377c:	3c068001 	lui	a2,0x8001
80013780:	24c64788 	addiu	a2,a2,18312
80013784:	3c078001 	lui	a3,0x8001
80013788:	0c004764 	jal	80011d90 <_panic>
8001378c:	24e748f8 	addiu	a3,a3,18680
80013790:	8c4275c4 	lw	v0,30148(v0)
80013794:	8c470000 	lw	a3,0(v0)
80013798:	30e20200 	andi	v0,a3,0x200
8001379c:	10400015 	beqz	v0,800137f4 <page_check+0x3d8>
800137a0:	2402f000 	li	v0,-4096
800137a4:	00e23824 	and	a3,a3,v0
800137a8:	00071302 	srl	v0,a3,0xc
800137ac:	3c038001 	lui	v1,0x8001
800137b0:	8c6375c0 	lw	v1,30144(v1)
800137b4:	0043102b 	sltu	v0,v0,v1
800137b8:	14400007 	bnez	v0,800137d8 <page_check+0x3bc>
800137bc:	3c028000 	lui	v0,0x8000
800137c0:	3c048001 	lui	a0,0x8001
800137c4:	2484451c 	addiu	a0,a0,17692
800137c8:	2405003c 	li	a1,60
800137cc:	3c068001 	lui	a2,0x8001
800137d0:	0c004764 	jal	80011d90 <_panic>
800137d4:	24c64530 	addiu	a2,a2,17712
800137d8:	00e21021 	addu	v0,a3,v0
800137dc:	8c470004 	lw	a3,4(v0)
800137e0:	30e20200 	andi	v0,a3,0x200
800137e4:	10400003 	beqz	v0,800137f4 <page_check+0x3d8>
800137e8:	2402f000 	li	v0,-4096
800137ec:	10000002 	b	800137f8 <page_check+0x3dc>
800137f0:	00e23824 	and	a3,a3,v0
800137f4:	2407ffff 	li	a3,-1
800137f8:	8fa4001c 	lw	a0,28(sp)
800137fc:	3c028001 	lui	v0,0x8001
80013800:	8c4375d4 	lw	v1,30164(v0)
80013804:	00831823 	subu	v1,a0,v1
80013808:	00031883 	sra	v1,v1,0x2
8001380c:	00031080 	sll	v0,v1,0x2
80013810:	00431021 	addu	v0,v0,v1
80013814:	00021900 	sll	v1,v0,0x4
80013818:	00431021 	addu	v0,v0,v1
8001381c:	00021a00 	sll	v1,v0,0x8
80013820:	00431021 	addu	v0,v0,v1
80013824:	00021c00 	sll	v1,v0,0x10
80013828:	00431021 	addu	v0,v0,v1
8001382c:	00021023 	negu	v0,v0
80013830:	00021300 	sll	v0,v0,0xc
80013834:	10e20009 	beq	a3,v0,8001385c <page_check+0x440>
80013838:	24020001 	li	v0,1
8001383c:	3c048001 	lui	a0,0x8001
80013840:	24844714 	addiu	a0,a0,18196
80013844:	2405019e 	li	a1,414
80013848:	3c068001 	lui	a2,0x8001
8001384c:	24c64788 	addiu	a2,a2,18312
80013850:	3c078001 	lui	a3,0x8001
80013854:	0c004764 	jal	80011d90 <_panic>
80013858:	24e74924 	addiu	a3,a3,18724
8001385c:	94830008 	lhu	v1,8(a0)
80013860:	10620008 	beq	v1,v0,80013884 <page_check+0x468>
80013864:	3c048001 	lui	a0,0x8001
80013868:	24844714 	addiu	a0,a0,18196
8001386c:	2405019f 	li	a1,415
80013870:	3c068001 	lui	a2,0x8001
80013874:	24c64788 	addiu	a2,a2,18312
80013878:	3c078001 	lui	a3,0x8001
8001387c:	0c004764 	jal	80011d90 <_panic>
80013880:	24e74950 	addiu	a3,a3,18768
80013884:	0c004ba0 	jal	80012e80 <page_alloc>
80013888:	27a40010 	addiu	a0,sp,16
8001388c:	2403fffc 	li	v1,-4
80013890:	10430009 	beq	v0,v1,800138b8 <page_check+0x49c>
80013894:	3c028001 	lui	v0,0x8001
80013898:	3c048001 	lui	a0,0x8001
8001389c:	24844714 	addiu	a0,a0,18196
800138a0:	240501a1 	li	a1,417
800138a4:	3c068001 	lui	a2,0x8001
800138a8:	24c64788 	addiu	a2,a2,18312
800138ac:	3c078001 	lui	a3,0x8001
800138b0:	0c004764 	jal	80011d90 <_panic>
800138b4:	24e7481c 	addiu	a3,a3,18460
800138b8:	8c4475c4 	lw	a0,30148(v0)
800138bc:	8fa5001c 	lw	a1,28(sp)
800138c0:	24061000 	li	a2,4096
800138c4:	0c004c4d 	jal	80013134 <page_insert>
800138c8:	00003821 	move	a3,zero
800138cc:	10400009 	beqz	v0,800138f4 <page_check+0x4d8>
800138d0:	3c028001 	lui	v0,0x8001
800138d4:	3c048001 	lui	a0,0x8001
800138d8:	24844714 	addiu	a0,a0,18196
800138dc:	240501a4 	li	a1,420
800138e0:	3c068001 	lui	a2,0x8001
800138e4:	24c64788 	addiu	a2,a2,18312
800138e8:	3c078001 	lui	a3,0x8001
800138ec:	0c004764 	jal	80011d90 <_panic>
800138f0:	24e748f8 	addiu	a3,a3,18680
800138f4:	8c4275c4 	lw	v0,30148(v0)
800138f8:	8c470000 	lw	a3,0(v0)
800138fc:	30e20200 	andi	v0,a3,0x200
80013900:	10400015 	beqz	v0,80013958 <page_check+0x53c>
80013904:	2402f000 	li	v0,-4096
80013908:	00e23824 	and	a3,a3,v0
8001390c:	00071302 	srl	v0,a3,0xc
80013910:	3c038001 	lui	v1,0x8001
80013914:	8c6375c0 	lw	v1,30144(v1)
80013918:	0043102b 	sltu	v0,v0,v1
8001391c:	14400007 	bnez	v0,8001393c <page_check+0x520>
80013920:	3c028000 	lui	v0,0x8000
80013924:	3c048001 	lui	a0,0x8001
80013928:	2484451c 	addiu	a0,a0,17692
8001392c:	2405003c 	li	a1,60
80013930:	3c068001 	lui	a2,0x8001
80013934:	0c004764 	jal	80011d90 <_panic>
80013938:	24c64530 	addiu	a2,a2,17712
8001393c:	00e21021 	addu	v0,a3,v0
80013940:	8c470004 	lw	a3,4(v0)
80013944:	30e20200 	andi	v0,a3,0x200
80013948:	10400003 	beqz	v0,80013958 <page_check+0x53c>
8001394c:	2402f000 	li	v0,-4096
80013950:	10000002 	b	8001395c <page_check+0x540>
80013954:	00e23824 	and	a3,a3,v0
80013958:	2407ffff 	li	a3,-1
8001395c:	8fa4001c 	lw	a0,28(sp)
80013960:	3c028001 	lui	v0,0x8001
80013964:	8c4375d4 	lw	v1,30164(v0)
80013968:	00831823 	subu	v1,a0,v1
8001396c:	00031883 	sra	v1,v1,0x2
80013970:	00031080 	sll	v0,v1,0x2
80013974:	00431021 	addu	v0,v0,v1
80013978:	00021900 	sll	v1,v0,0x4
8001397c:	00431021 	addu	v0,v0,v1
80013980:	00021a00 	sll	v1,v0,0x8
80013984:	00431021 	addu	v0,v0,v1
80013988:	00021c00 	sll	v1,v0,0x10
8001398c:	00431021 	addu	v0,v0,v1
80013990:	00021023 	negu	v0,v0
80013994:	00021300 	sll	v0,v0,0xc
80013998:	10e20009 	beq	a3,v0,800139c0 <page_check+0x5a4>
8001399c:	24020001 	li	v0,1
800139a0:	3c048001 	lui	a0,0x8001
800139a4:	24844714 	addiu	a0,a0,18196
800139a8:	240501a5 	li	a1,421
800139ac:	3c068001 	lui	a2,0x8001
800139b0:	24c64788 	addiu	a2,a2,18312
800139b4:	3c078001 	lui	a3,0x8001
800139b8:	0c004764 	jal	80011d90 <_panic>
800139bc:	24e74924 	addiu	a3,a3,18724
800139c0:	94830008 	lhu	v1,8(a0)
800139c4:	10620008 	beq	v1,v0,800139e8 <page_check+0x5cc>
800139c8:	3c048001 	lui	a0,0x8001
800139cc:	24844714 	addiu	a0,a0,18196
800139d0:	240501a6 	li	a1,422
800139d4:	3c068001 	lui	a2,0x8001
800139d8:	24c64788 	addiu	a2,a2,18312
800139dc:	3c078001 	lui	a3,0x8001
800139e0:	0c004764 	jal	80011d90 <_panic>
800139e4:	24e74950 	addiu	a3,a3,18768
800139e8:	0c004ba0 	jal	80012e80 <page_alloc>
800139ec:	27a40010 	addiu	a0,sp,16
800139f0:	2403fffc 	li	v1,-4
800139f4:	10430009 	beq	v0,v1,80013a1c <page_check+0x600>
800139f8:	3c028001 	lui	v0,0x8001
800139fc:	3c048001 	lui	a0,0x8001
80013a00:	24844714 	addiu	a0,a0,18196
80013a04:	240501aa 	li	a1,426
80013a08:	3c068001 	lui	a2,0x8001
80013a0c:	24c64788 	addiu	a2,a2,18312
80013a10:	3c078001 	lui	a3,0x8001
80013a14:	0c004764 	jal	80011d90 <_panic>
80013a18:	24e7481c 	addiu	a3,a3,18460
80013a1c:	8c4475c4 	lw	a0,30148(v0)
80013a20:	8fa50014 	lw	a1,20(sp)
80013a24:	3c060040 	lui	a2,0x40
80013a28:	0c004c4d 	jal	80013134 <page_insert>
80013a2c:	00003821 	move	a3,zero
80013a30:	04400009 	bltz	v0,80013a58 <page_check+0x63c>
80013a34:	3c028001 	lui	v0,0x8001
80013a38:	3c048001 	lui	a0,0x8001
80013a3c:	24844714 	addiu	a0,a0,18196
80013a40:	240501ad 	li	a1,429
80013a44:	3c068001 	lui	a2,0x8001
80013a48:	24c64788 	addiu	a2,a2,18312
80013a4c:	3c078001 	lui	a3,0x8001
80013a50:	0c004764 	jal	80011d90 <_panic>
80013a54:	24e74964 	addiu	a3,a3,18788
80013a58:	8c4475c4 	lw	a0,30148(v0)
80013a5c:	8fa50018 	lw	a1,24(sp)
80013a60:	24061000 	li	a2,4096
80013a64:	0c004c4d 	jal	80013134 <page_insert>
80013a68:	00003821 	move	a3,zero
80013a6c:	10400009 	beqz	v0,80013a94 <page_check+0x678>
80013a70:	3c028001 	lui	v0,0x8001
80013a74:	3c048001 	lui	a0,0x8001
80013a78:	24844714 	addiu	a0,a0,18196
80013a7c:	240501b0 	li	a1,432
80013a80:	3c068001 	lui	a2,0x8001
80013a84:	24c64788 	addiu	a2,a2,18312
80013a88:	3c078001 	lui	a3,0x8001
80013a8c:	0c004764 	jal	80011d90 <_panic>
80013a90:	24e74990 	addiu	a3,a3,18832
80013a94:	8c4275c4 	lw	v0,30148(v0)
80013a98:	8c450000 	lw	a1,0(v0)
80013a9c:	00051242 	srl	v0,a1,0x9
80013aa0:	30460001 	andi	a2,v0,0x1
80013aa4:	10c00017 	beqz	a2,80013b04 <page_check+0x6e8>
80013aa8:	2404ffff 	li	a0,-1
80013aac:	2402f000 	li	v0,-4096
80013ab0:	00a23824 	and	a3,a1,v0
80013ab4:	00071302 	srl	v0,a3,0xc
80013ab8:	3c038001 	lui	v1,0x8001
80013abc:	8c6375c0 	lw	v1,30144(v1)
80013ac0:	0043102b 	sltu	v0,v0,v1
80013ac4:	14400007 	bnez	v0,80013ae4 <page_check+0x6c8>
80013ac8:	3c028000 	lui	v0,0x8000
80013acc:	3c048001 	lui	a0,0x8001
80013ad0:	2484451c 	addiu	a0,a0,17692
80013ad4:	2405003c 	li	a1,60
80013ad8:	3c068001 	lui	a2,0x8001
80013adc:	0c004764 	jal	80011d90 <_panic>
80013ae0:	24c64530 	addiu	a2,a2,17712
80013ae4:	00e21021 	addu	v0,a3,v0
80013ae8:	8c470000 	lw	a3,0(v0)
80013aec:	30e20200 	andi	v0,a3,0x200
80013af0:	10400003 	beqz	v0,80013b00 <page_check+0x6e4>
80013af4:	2402f000 	li	v0,-4096
80013af8:	10000002 	b	80013b04 <page_check+0x6e8>
80013afc:	00e22024 	and	a0,a3,v0
80013b00:	2404ffff 	li	a0,-1
80013b04:	8fa80018 	lw	t0,24(sp)
80013b08:	3c028001 	lui	v0,0x8001
80013b0c:	8c4375d4 	lw	v1,30164(v0)
80013b10:	01031823 	subu	v1,t0,v1
80013b14:	00031883 	sra	v1,v1,0x2
80013b18:	00031080 	sll	v0,v1,0x2
80013b1c:	00431021 	addu	v0,v0,v1
80013b20:	00021900 	sll	v1,v0,0x4
80013b24:	00431021 	addu	v0,v0,v1
80013b28:	00021a00 	sll	v1,v0,0x8
80013b2c:	00431021 	addu	v0,v0,v1
80013b30:	00021c00 	sll	v1,v0,0x10
80013b34:	00431021 	addu	v0,v0,v1
80013b38:	00021023 	negu	v0,v0
80013b3c:	00021300 	sll	v0,v0,0xc
80013b40:	10820008 	beq	a0,v0,80013b64 <page_check+0x748>
80013b44:	3c078001 	lui	a3,0x8001
80013b48:	3c048001 	lui	a0,0x8001
80013b4c:	24844714 	addiu	a0,a0,18196
80013b50:	240501b3 	li	a1,435
80013b54:	3c068001 	lui	a2,0x8001
80013b58:	24c64788 	addiu	a2,a2,18312
80013b5c:	0c004764 	jal	80011d90 <_panic>
80013b60:	24e748bc 	addiu	a3,a3,18620
80013b64:	10c00017 	beqz	a2,80013bc4 <page_check+0x7a8>
80013b68:	2402ffff 	li	v0,-1
80013b6c:	2402f000 	li	v0,-4096
80013b70:	00a23824 	and	a3,a1,v0
80013b74:	00071302 	srl	v0,a3,0xc
80013b78:	3c038001 	lui	v1,0x8001
80013b7c:	8c6375c0 	lw	v1,30144(v1)
80013b80:	0043102b 	sltu	v0,v0,v1
80013b84:	14400007 	bnez	v0,80013ba4 <page_check+0x788>
80013b88:	3c028000 	lui	v0,0x8000
80013b8c:	3c048001 	lui	a0,0x8001
80013b90:	2484451c 	addiu	a0,a0,17692
80013b94:	2405003c 	li	a1,60
80013b98:	3c068001 	lui	a2,0x8001
80013b9c:	0c004764 	jal	80011d90 <_panic>
80013ba0:	24c64530 	addiu	a2,a2,17712
80013ba4:	00e21021 	addu	v0,a3,v0
80013ba8:	8c470004 	lw	a3,4(v0)
80013bac:	30e20200 	andi	v0,a3,0x200
80013bb0:	10400003 	beqz	v0,80013bc0 <page_check+0x7a4>
80013bb4:	2402f000 	li	v0,-4096
80013bb8:	10000002 	b	80013bc4 <page_check+0x7a8>
80013bbc:	00e21024 	and	v0,a3,v0
80013bc0:	2402ffff 	li	v0,-1
80013bc4:	10820009 	beq	a0,v0,80013bec <page_check+0x7d0>
80013bc8:	24020002 	li	v0,2
80013bcc:	3c048001 	lui	a0,0x8001
80013bd0:	24844714 	addiu	a0,a0,18196
80013bd4:	240501b4 	li	a1,436
80013bd8:	3c068001 	lui	a2,0x8001
80013bdc:	24c64788 	addiu	a2,a2,18312
80013be0:	3c078001 	lui	a3,0x8001
80013be4:	0c004764 	jal	80011d90 <_panic>
80013be8:	24e749bc 	addiu	a3,a3,18876
80013bec:	95030008 	lhu	v1,8(t0)
80013bf0:	10620009 	beq	v1,v0,80013c18 <page_check+0x7fc>
80013bf4:	8fa2001c 	lw	v0,28(sp)
80013bf8:	3c048001 	lui	a0,0x8001
80013bfc:	24844714 	addiu	a0,a0,18196
80013c00:	240501b6 	li	a1,438
80013c04:	3c068001 	lui	a2,0x8001
80013c08:	24c64788 	addiu	a2,a2,18312
80013c0c:	3c078001 	lui	a3,0x8001
80013c10:	0c004764 	jal	80011d90 <_panic>
80013c14:	24e749e8 	addiu	a3,a3,18920
80013c18:	94420008 	lhu	v0,8(v0)
80013c1c:	10400008 	beqz	v0,80013c40 <page_check+0x824>
80013c20:	3c048001 	lui	a0,0x8001
80013c24:	24844714 	addiu	a0,a0,18196
80013c28:	240501b7 	li	a1,439
80013c2c:	3c068001 	lui	a2,0x8001
80013c30:	24c64788 	addiu	a2,a2,18312
80013c34:	3c078001 	lui	a3,0x8001
80013c38:	0c004764 	jal	80011d90 <_panic>
80013c3c:	24e749fc 	addiu	a3,a3,18940
80013c40:	0c004ba0 	jal	80012e80 <page_alloc>
80013c44:	27a40010 	addiu	a0,sp,16
80013c48:	14400004 	bnez	v0,80013c5c <page_check+0x840>
80013c4c:	8fa30010 	lw	v1,16(sp)
80013c50:	8fa2001c 	lw	v0,28(sp)
80013c54:	10620009 	beq	v1,v0,80013c7c <page_check+0x860>
80013c58:	3c108001 	lui	s0,0x8001
80013c5c:	3c048001 	lui	a0,0x8001
80013c60:	24844714 	addiu	a0,a0,18196
80013c64:	240501ba 	li	a1,442
80013c68:	3c068001 	lui	a2,0x8001
80013c6c:	24c64788 	addiu	a2,a2,18312
80013c70:	3c078001 	lui	a3,0x8001
80013c74:	0c004764 	jal	80011d90 <_panic>
80013c78:	24e74a10 	addiu	a3,a3,18960
80013c7c:	8e0475c4 	lw	a0,30148(s0)
80013c80:	0c004cd8 	jal	80013360 <page_remove>
80013c84:	00002821 	move	a1,zero
80013c88:	8e0475c4 	lw	a0,30148(s0)
80013c8c:	8c870000 	lw	a3,0(a0)
80013c90:	30e20200 	andi	v0,a3,0x200
80013c94:	10400034 	beqz	v0,80013d68 <page_check+0x94c>
80013c98:	2402f000 	li	v0,-4096
80013c9c:	00e24024 	and	t0,a3,v0
80013ca0:	00081302 	srl	v0,t0,0xc
80013ca4:	3c038001 	lui	v1,0x8001
80013ca8:	8c6375c0 	lw	v1,30144(v1)
80013cac:	0043102b 	sltu	v0,v0,v1
80013cb0:	14400008 	bnez	v0,80013cd4 <page_check+0x8b8>
80013cb4:	3c028000 	lui	v0,0x8000
80013cb8:	3c048001 	lui	a0,0x8001
80013cbc:	2484451c 	addiu	a0,a0,17692
80013cc0:	2405003c 	li	a1,60
80013cc4:	3c068001 	lui	a2,0x8001
80013cc8:	24c64530 	addiu	a2,a2,17712
80013ccc:	0c004764 	jal	80011d90 <_panic>
80013cd0:	01003821 	move	a3,t0
80013cd4:	01021021 	addu	v0,t0,v0
80013cd8:	8c430000 	lw	v1,0(v0)
80013cdc:	30620200 	andi	v0,v1,0x200
80013ce0:	1040000d 	beqz	v0,80013d18 <page_check+0x8fc>
80013ce4:	2402f000 	li	v0,-4096
80013ce8:	00621024 	and	v0,v1,v0
80013cec:	2403ffff 	li	v1,-1
80013cf0:	10430009 	beq	v0,v1,80013d18 <page_check+0x8fc>
80013cf4:	2402f000 	li	v0,-4096
80013cf8:	3c048001 	lui	a0,0x8001
80013cfc:	24844714 	addiu	a0,a0,18196
80013d00:	240501be 	li	a1,446
80013d04:	3c068001 	lui	a2,0x8001
80013d08:	24c64788 	addiu	a2,a2,18312
80013d0c:	3c078001 	lui	a3,0x8001
80013d10:	0c004764 	jal	80011d90 <_panic>
80013d14:	24e74a34 	addiu	a3,a3,18996
80013d18:	00e23824 	and	a3,a3,v0
80013d1c:	00071302 	srl	v0,a3,0xc
80013d20:	3c038001 	lui	v1,0x8001
80013d24:	8c6375c0 	lw	v1,30144(v1)
80013d28:	0043102b 	sltu	v0,v0,v1
80013d2c:	14400007 	bnez	v0,80013d4c <page_check+0x930>
80013d30:	3c028000 	lui	v0,0x8000
80013d34:	3c048001 	lui	a0,0x8001
80013d38:	2484451c 	addiu	a0,a0,17692
80013d3c:	2405003c 	li	a1,60
80013d40:	3c068001 	lui	a2,0x8001
80013d44:	0c004764 	jal	80011d90 <_panic>
80013d48:	24c64530 	addiu	a2,a2,17712
80013d4c:	00e21021 	addu	v0,a3,v0
80013d50:	8c470004 	lw	a3,4(v0)
80013d54:	30e20200 	andi	v0,a3,0x200
80013d58:	10400003 	beqz	v0,80013d68 <page_check+0x94c>
80013d5c:	2402f000 	li	v0,-4096
80013d60:	10000002 	b	80013d6c <page_check+0x950>
80013d64:	00e23824 	and	a3,a3,v0
80013d68:	2407ffff 	li	a3,-1
80013d6c:	8fa50018 	lw	a1,24(sp)
80013d70:	3c028001 	lui	v0,0x8001
80013d74:	8c4375d4 	lw	v1,30164(v0)
80013d78:	00a31823 	subu	v1,a1,v1
80013d7c:	00031883 	sra	v1,v1,0x2
80013d80:	00031080 	sll	v0,v1,0x2
80013d84:	00431021 	addu	v0,v0,v1
80013d88:	00021900 	sll	v1,v0,0x4
80013d8c:	00431021 	addu	v0,v0,v1
80013d90:	00021a00 	sll	v1,v0,0x8
80013d94:	00431021 	addu	v0,v0,v1
80013d98:	00021c00 	sll	v1,v0,0x10
80013d9c:	00431021 	addu	v0,v0,v1
80013da0:	00021023 	negu	v0,v0
80013da4:	00021300 	sll	v0,v0,0xc
80013da8:	10e20009 	beq	a3,v0,80013dd0 <page_check+0x9b4>
80013dac:	24020001 	li	v0,1
80013db0:	3c048001 	lui	a0,0x8001
80013db4:	24844714 	addiu	a0,a0,18196
80013db8:	240501bf 	li	a1,447
80013dbc:	3c068001 	lui	a2,0x8001
80013dc0:	24c64788 	addiu	a2,a2,18312
80013dc4:	3c078001 	lui	a3,0x8001
80013dc8:	0c004764 	jal	80011d90 <_panic>
80013dcc:	24e749bc 	addiu	a3,a3,18876
80013dd0:	94a30008 	lhu	v1,8(a1)
80013dd4:	10620009 	beq	v1,v0,80013dfc <page_check+0x9e0>
80013dd8:	8fa2001c 	lw	v0,28(sp)
80013ddc:	3c048001 	lui	a0,0x8001
80013de0:	24844714 	addiu	a0,a0,18196
80013de4:	240501c0 	li	a1,448
80013de8:	3c068001 	lui	a2,0x8001
80013dec:	24c64788 	addiu	a2,a2,18312
80013df0:	3c078001 	lui	a3,0x8001
80013df4:	0c004764 	jal	80011d90 <_panic>
80013df8:	24e748e4 	addiu	a3,a3,18660
80013dfc:	94420008 	lhu	v0,8(v0)
80013e00:	10400008 	beqz	v0,80013e24 <page_check+0xa08>
80013e04:	240501c1 	li	a1,449
80013e08:	3c048001 	lui	a0,0x8001
80013e0c:	24844714 	addiu	a0,a0,18196
80013e10:	3c068001 	lui	a2,0x8001
80013e14:	24c64788 	addiu	a2,a2,18312
80013e18:	3c078001 	lui	a3,0x8001
80013e1c:	0c004764 	jal	80011d90 <_panic>
80013e20:	24e749fc 	addiu	a3,a3,18940
80013e24:	0c004cd8 	jal	80013360 <page_remove>
80013e28:	24051000 	li	a1,4096
80013e2c:	3c028001 	lui	v0,0x8001
80013e30:	8c4275c4 	lw	v0,30148(v0)
80013e34:	8c470000 	lw	a3,0(v0)
80013e38:	30e20200 	andi	v0,a3,0x200
80013e3c:	10400040 	beqz	v0,80013f40 <page_check+0xb24>
80013e40:	8fa20018 	lw	v0,24(sp)
80013e44:	2402f000 	li	v0,-4096
80013e48:	00e24024 	and	t0,a3,v0
80013e4c:	00081302 	srl	v0,t0,0xc
80013e50:	3c038001 	lui	v1,0x8001
80013e54:	8c6375c0 	lw	v1,30144(v1)
80013e58:	0043102b 	sltu	v0,v0,v1
80013e5c:	14400008 	bnez	v0,80013e80 <page_check+0xa64>
80013e60:	3c028000 	lui	v0,0x8000
80013e64:	3c048001 	lui	a0,0x8001
80013e68:	2484451c 	addiu	a0,a0,17692
80013e6c:	2405003c 	li	a1,60
80013e70:	3c068001 	lui	a2,0x8001
80013e74:	24c64530 	addiu	a2,a2,17712
80013e78:	0c004764 	jal	80011d90 <_panic>
80013e7c:	01003821 	move	a3,t0
80013e80:	01021021 	addu	v0,t0,v0
80013e84:	8c430000 	lw	v1,0(v0)
80013e88:	30620200 	andi	v0,v1,0x200
80013e8c:	1040000d 	beqz	v0,80013ec4 <page_check+0xaa8>
80013e90:	2402f000 	li	v0,-4096
80013e94:	00621024 	and	v0,v1,v0
80013e98:	2403ffff 	li	v1,-1
80013e9c:	10430009 	beq	v0,v1,80013ec4 <page_check+0xaa8>
80013ea0:	2402f000 	li	v0,-4096
80013ea4:	3c048001 	lui	a0,0x8001
80013ea8:	24844714 	addiu	a0,a0,18196
80013eac:	240501c5 	li	a1,453
80013eb0:	3c068001 	lui	a2,0x8001
80013eb4:	24c64788 	addiu	a2,a2,18312
80013eb8:	3c078001 	lui	a3,0x8001
80013ebc:	0c004764 	jal	80011d90 <_panic>
80013ec0:	24e74a34 	addiu	a3,a3,18996
80013ec4:	00e23824 	and	a3,a3,v0
80013ec8:	00071302 	srl	v0,a3,0xc
80013ecc:	3c038001 	lui	v1,0x8001
80013ed0:	8c6375c0 	lw	v1,30144(v1)
80013ed4:	0043102b 	sltu	v0,v0,v1
80013ed8:	14400007 	bnez	v0,80013ef8 <page_check+0xadc>
80013edc:	3c028000 	lui	v0,0x8000
80013ee0:	3c048001 	lui	a0,0x8001
80013ee4:	2484451c 	addiu	a0,a0,17692
80013ee8:	2405003c 	li	a1,60
80013eec:	3c068001 	lui	a2,0x8001
80013ef0:	0c004764 	jal	80011d90 <_panic>
80013ef4:	24c64530 	addiu	a2,a2,17712
80013ef8:	00e21021 	addu	v0,a3,v0
80013efc:	8c470004 	lw	a3,4(v0)
80013f00:	30e20200 	andi	v0,a3,0x200
80013f04:	1040000e 	beqz	v0,80013f40 <page_check+0xb24>
80013f08:	8fa20018 	lw	v0,24(sp)
80013f0c:	2402f000 	li	v0,-4096
80013f10:	00e21024 	and	v0,a3,v0
80013f14:	2403ffff 	li	v1,-1
80013f18:	10430009 	beq	v0,v1,80013f40 <page_check+0xb24>
80013f1c:	8fa20018 	lw	v0,24(sp)
80013f20:	3c048001 	lui	a0,0x8001
80013f24:	24844714 	addiu	a0,a0,18196
80013f28:	240501c6 	li	a1,454
80013f2c:	3c068001 	lui	a2,0x8001
80013f30:	24c64788 	addiu	a2,a2,18312
80013f34:	3c078001 	lui	a3,0x8001
80013f38:	0c004764 	jal	80011d90 <_panic>
80013f3c:	24e74a54 	addiu	a3,a3,19028
80013f40:	94420008 	lhu	v0,8(v0)
80013f44:	10400009 	beqz	v0,80013f6c <page_check+0xb50>
80013f48:	8fa2001c 	lw	v0,28(sp)
80013f4c:	3c048001 	lui	a0,0x8001
80013f50:	24844714 	addiu	a0,a0,18196
80013f54:	240501c7 	li	a1,455
80013f58:	3c068001 	lui	a2,0x8001
80013f5c:	24c64788 	addiu	a2,a2,18312
80013f60:	3c078001 	lui	a3,0x8001
80013f64:	0c004764 	jal	80011d90 <_panic>
80013f68:	24e74a74 	addiu	a3,a3,19060
80013f6c:	94420008 	lhu	v0,8(v0)
80013f70:	10400008 	beqz	v0,80013f94 <page_check+0xb78>
80013f74:	3c048001 	lui	a0,0x8001
80013f78:	24844714 	addiu	a0,a0,18196
80013f7c:	240501c8 	li	a1,456
80013f80:	3c068001 	lui	a2,0x8001
80013f84:	24c64788 	addiu	a2,a2,18312
80013f88:	3c078001 	lui	a3,0x8001
80013f8c:	0c004764 	jal	80011d90 <_panic>
80013f90:	24e749fc 	addiu	a3,a3,18940
80013f94:	0c004ba0 	jal	80012e80 <page_alloc>
80013f98:	27a40010 	addiu	a0,sp,16
80013f9c:	14400004 	bnez	v0,80013fb0 <page_check+0xb94>
80013fa0:	8fa30010 	lw	v1,16(sp)
80013fa4:	8fa20018 	lw	v0,24(sp)
80013fa8:	10620009 	beq	v1,v0,80013fd0 <page_check+0xbb4>
80013fac:	00000000 	nop
80013fb0:	3c048001 	lui	a0,0x8001
80013fb4:	24844714 	addiu	a0,a0,18196
80013fb8:	240501cb 	li	a1,459
80013fbc:	3c068001 	lui	a2,0x8001
80013fc0:	24c64788 	addiu	a2,a2,18312
80013fc4:	3c078001 	lui	a3,0x8001
80013fc8:	0c004764 	jal	80011d90 <_panic>
80013fcc:	24e74a88 	addiu	a3,a3,19080
80013fd0:	0c004ba0 	jal	80012e80 <page_alloc>
80013fd4:	27a40010 	addiu	a0,sp,16
80013fd8:	2403fffc 	li	v1,-4
80013fdc:	10430009 	beq	v0,v1,80014004 <page_check+0xbe8>
80013fe0:	3c028001 	lui	v0,0x8001
80013fe4:	3c048001 	lui	a0,0x8001
80013fe8:	24844714 	addiu	a0,a0,18196
80013fec:	240501ce 	li	a1,462
80013ff0:	3c068001 	lui	a2,0x8001
80013ff4:	24c64788 	addiu	a2,a2,18312
80013ff8:	3c078001 	lui	a3,0x8001
80013ffc:	0c004764 	jal	80011d90 <_panic>
80014000:	24e7481c 	addiu	a3,a3,18460
80014004:	8c4575c4 	lw	a1,30148(v0)
80014008:	8ca40000 	lw	a0,0(a1)
8001400c:	2402f000 	li	v0,-4096
80014010:	00822024 	and	a0,a0,v0
80014014:	3c028001 	lui	v0,0x8001
80014018:	8c4275d4 	lw	v0,30164(v0)
8001401c:	8fa30014 	lw	v1,20(sp)
80014020:	00621823 	subu	v1,v1,v0
80014024:	00031883 	sra	v1,v1,0x2
80014028:	00031080 	sll	v0,v1,0x2
8001402c:	00431021 	addu	v0,v0,v1
80014030:	00021900 	sll	v1,v0,0x4
80014034:	00431021 	addu	v0,v0,v1
80014038:	00021a00 	sll	v1,v0,0x8
8001403c:	00431021 	addu	v0,v0,v1
80014040:	00021c00 	sll	v1,v0,0x10
80014044:	00431021 	addu	v0,v0,v1
80014048:	00021023 	negu	v0,v0
8001404c:	00021300 	sll	v0,v0,0xc
80014050:	10820009 	beq	a0,v0,80014078 <page_check+0xc5c>
80014054:	24020001 	li	v0,1
80014058:	3c048001 	lui	a0,0x8001
8001405c:	24844714 	addiu	a0,a0,18196
80014060:	240501d1 	li	a1,465
80014064:	3c068001 	lui	a2,0x8001
80014068:	24c64788 	addiu	a2,a2,18312
8001406c:	3c078001 	lui	a3,0x8001
80014070:	0c004764 	jal	80011d90 <_panic>
80014074:	24e74894 	addiu	a3,a3,18580
80014078:	aca00000 	sw	zero,0(a1)
8001407c:	8fa40014 	lw	a0,20(sp)
80014080:	94830008 	lhu	v1,8(a0)
80014084:	10620009 	beq	v1,v0,800140ac <page_check+0xc90>
80014088:	3c028001 	lui	v0,0x8001
8001408c:	3c048001 	lui	a0,0x8001
80014090:	24844714 	addiu	a0,a0,18196
80014094:	240501d3 	li	a1,467
80014098:	3c068001 	lui	a2,0x8001
8001409c:	24c64788 	addiu	a2,a2,18312
800140a0:	3c078001 	lui	a3,0x8001
800140a4:	0c004764 	jal	80011d90 <_panic>
800140a8:	24e74aac 	addiu	a3,a3,19116
800140ac:	a4800008 	sh	zero,8(a0)
800140b0:	ac517534 	sw	s1,30004(v0)
800140b4:	0c004bd4 	jal	80012f50 <page_free>
800140b8:	8fa40014 	lw	a0,20(sp)
800140bc:	0c004bd4 	jal	80012f50 <page_free>
800140c0:	8fa40018 	lw	a0,24(sp)
800140c4:	0c004bd4 	jal	80012f50 <page_free>
800140c8:	8fa4001c 	lw	a0,28(sp)
800140cc:	3c048001 	lui	a0,0x8001
800140d0:	0c004755 	jal	80011d54 <printf>
800140d4:	24844ac0 	addiu	a0,a0,19136
800140d8:	8fbf0028 	lw	ra,40(sp)
800140dc:	8fb10024 	lw	s1,36(sp)
800140e0:	8fb00020 	lw	s0,32(sp)
800140e4:	03e00008 	jr	ra
800140e8:	27bd0030 	addiu	sp,sp,48

800140ec <pageout>:
800140ec:	27bdffd8 	addiu	sp,sp,-40
800140f0:	afbf0020 	sw	ra,32(sp)
800140f4:	afb1001c 	sw	s1,28(sp)
800140f8:	afb00018 	sw	s0,24(sp)
800140fc:	00808021 	move	s0,a0
80014100:	00a08821 	move	s1,a1
80014104:	04a00007 	bltz	a1,80014124 <pageout+0x38>
80014108:	afa00010 	sw	zero,16(sp)
8001410c:	3c048001 	lui	a0,0x8001
80014110:	24844714 	addiu	a0,a0,18196
80014114:	240501e9 	li	a1,489
80014118:	3c068001 	lui	a2,0x8001
8001411c:	0c004764 	jal	80011d90 <_panic>
80014120:	24c64adc 	addiu	a2,a2,19164
80014124:	3c0280bf 	lui	v0,0x80bf
80014128:	3442ffff 	ori	v0,v0,0xffff
8001412c:	00821021 	addu	v0,a0,v0
80014130:	3c03003f 	lui	v1,0x3f
80014134:	3463fffe 	ori	v1,v1,0xfffe
80014138:	0062102b 	sltu	v0,v1,v0
8001413c:	14400007 	bnez	v0,8001415c <pageout+0x70>
80014140:	3402ffff 	li	v0,0xffff
80014144:	3c048001 	lui	a0,0x8001
80014148:	24844714 	addiu	a0,a0,18196
8001414c:	240501eb 	li	a1,491
80014150:	3c068001 	lui	a2,0x8001
80014154:	0c004764 	jal	80011d90 <_panic>
80014158:	24c64af8 	addiu	a2,a2,19192
8001415c:	0044102a 	slt	v0,v0,a0
80014160:	14400006 	bnez	v0,8001417c <pageout+0x90>
80014164:	3c048001 	lui	a0,0x8001
80014168:	24844714 	addiu	a0,a0,18196
8001416c:	240501ee 	li	a1,494
80014170:	3c068001 	lui	a2,0x8001
80014174:	0c004764 	jal	80011d90 <_panic>
80014178:	24c64b20 	addiu	a2,a2,19232
8001417c:	0c004ba0 	jal	80012e80 <page_alloc>
80014180:	27a40010 	addiu	a0,sp,16
80014184:	8fa30010 	lw	v1,16(sp)
80014188:	94620008 	lhu	v0,8(v1)
8001418c:	24420001 	addiu	v0,v0,1
80014190:	a4620008 	sh	v0,8(v1)
80014194:	02202021 	move	a0,s1
80014198:	8fa50010 	lw	a1,16(sp)
8001419c:	2406f000 	li	a2,-4096
800141a0:	02063024 	and	a2,s0,a2
800141a4:	0c004c4d 	jal	80013134 <page_insert>
800141a8:	24070400 	li	a3,1024
800141ac:	3c048001 	lui	a0,0x8001
800141b0:	24844b38 	addiu	a0,a0,19256
800141b4:	0c004755 	jal	80011d54 <printf>
800141b8:	02002821 	move	a1,s0
800141bc:	8fbf0020 	lw	ra,32(sp)
800141c0:	8fb1001c 	lw	s1,28(sp)
800141c4:	8fb00018 	lw	s0,24(sp)
800141c8:	03e00008 	jr	ra
800141cc:	27bd0028 	addiu	sp,sp,40

800141d0 <tlb_out>:
800141d0:	00000000 	nop
800141d4:	401b5000 	mfc0	k1,c0_entryhi
800141d8:	40845000 	mtc0	a0,c0_entryhi
800141dc:	00000000 	nop
800141e0:	42000008 	tlbp
	...
800141f4:	401a0000 	mfc0	k0,c0_index
800141f8:	07400006 	bltz	k0,80014214 <NOFOUND>
800141fc:	00000000 	nop
80014200:	00000000 	nop
80014204:	40805000 	mtc0	zero,c0_entryhi
80014208:	40801000 	mtc0	zero,c0_entrylo0
8001420c:	00000000 	nop
80014210:	42000002 	tlbwi

80014214 <NOFOUND>:
80014214:	03e00008 	jr	ra
80014218:	409b5000 	mtc0	k1,c0_entryhi
8001421c:	00000000 	nop

80014220 <theFatalMsg>:
80014220:	66617461 	0x66617461
80014224:	6c206572 	0x6c206572
80014228:	726f7220 	0x726f7220
8001422c:	696e206c 	0x696e206c
80014230:	705f5072 	0x705f5072
80014234:	696e7421 	0x696e7421
	...
80014240:	80011948 	lb	at,6472(zero)
80014244:	80011950 	lb	at,6480(zero)
80014248:	80011950 	lb	at,6480(zero)
8001424c:	80011950 	lb	at,6480(zero)
80014250:	80011950 	lb	at,6480(zero)
80014254:	80011950 	lb	at,6480(zero)
80014258:	80011950 	lb	at,6480(zero)
8001425c:	80011950 	lb	at,6480(zero)
80014260:	80011950 	lb	at,6480(zero)
80014264:	80011950 	lb	at,6480(zero)
80014268:	80011950 	lb	at,6480(zero)
8001426c:	80011950 	lb	at,6480(zero)
80014270:	80011950 	lb	at,6480(zero)
80014274:	80011950 	lb	at,6480(zero)
80014278:	80011950 	lb	at,6480(zero)
8001427c:	80011950 	lb	at,6480(zero)
80014280:	80011950 	lb	at,6480(zero)
80014284:	80011950 	lb	at,6480(zero)
80014288:	80011950 	lb	at,6480(zero)
8001428c:	80011950 	lb	at,6480(zero)
80014290:	80011950 	lb	at,6480(zero)
80014294:	80011950 	lb	at,6480(zero)
80014298:	80011950 	lb	at,6480(zero)
8001429c:	80011950 	lb	at,6480(zero)
800142a0:	80011950 	lb	at,6480(zero)
800142a4:	80011950 	lb	at,6480(zero)
800142a8:	80011950 	lb	at,6480(zero)
800142ac:	80011950 	lb	at,6480(zero)
800142b0:	80011950 	lb	at,6480(zero)
800142b4:	80011950 	lb	at,6480(zero)
800142b8:	80011950 	lb	at,6480(zero)
800142bc:	80011950 	lb	at,6480(zero)
800142c0:	80011950 	lb	at,6480(zero)
800142c4:	80011950 	lb	at,6480(zero)
800142c8:	80011950 	lb	at,6480(zero)
800142cc:	80011950 	lb	at,6480(zero)
800142d0:	80011950 	lb	at,6480(zero)
800142d4:	80011950 	lb	at,6480(zero)
800142d8:	80011950 	lb	at,6480(zero)
800142dc:	80011950 	lb	at,6480(zero)
800142e0:	80011950 	lb	at,6480(zero)
800142e4:	80011950 	lb	at,6480(zero)
800142e8:	80011950 	lb	at,6480(zero)
800142ec:	80011950 	lb	at,6480(zero)
800142f0:	80011950 	lb	at,6480(zero)
800142f4:	80011950 	lb	at,6480(zero)
800142f8:	80011950 	lb	at,6480(zero)
800142fc:	80011950 	lb	at,6480(zero)
80014300:	80011950 	lb	at,6480(zero)
80014304:	80011950 	lb	at,6480(zero)
80014308:	80011950 	lb	at,6480(zero)
8001430c:	80011950 	lb	at,6480(zero)
80014310:	80011950 	lb	at,6480(zero)
80014314:	80011950 	lb	at,6480(zero)
80014318:	80011950 	lb	at,6480(zero)
8001431c:	80011950 	lb	at,6480(zero)
80014320:	80011950 	lb	at,6480(zero)
80014324:	80011950 	lb	at,6480(zero)
80014328:	80011950 	lb	at,6480(zero)
8001432c:	80011950 	lb	at,6480(zero)
80014330:	80011950 	lb	at,6480(zero)
80014334:	80011950 	lb	at,6480(zero)
80014338:	80011950 	lb	at,6480(zero)
8001433c:	80011950 	lb	at,6480(zero)
80014340:	80011950 	lb	at,6480(zero)
80014344:	80011950 	lb	at,6480(zero)
80014348:	80011950 	lb	at,6480(zero)
8001434c:	80011950 	lb	at,6480(zero)
80014350:	80011658 	lb	at,5720(zero)
80014354:	80011950 	lb	at,6480(zero)
80014358:	80011950 	lb	at,6480(zero)
8001435c:	80011950 	lb	at,6480(zero)
80014360:	80011950 	lb	at,6480(zero)
80014364:	80011950 	lb	at,6480(zero)
80014368:	80011950 	lb	at,6480(zero)
8001436c:	80011950 	lb	at,6480(zero)
80014370:	80011950 	lb	at,6480(zero)
80014374:	80011950 	lb	at,6480(zero)
80014378:	80011950 	lb	at,6480(zero)
8001437c:	800116dc 	lb	at,5852(zero)
80014380:	80011950 	lb	at,6480(zero)
80014384:	80011950 	lb	at,6480(zero)
80014388:	80011950 	lb	at,6480(zero)
8001438c:	80011950 	lb	at,6480(zero)
80014390:	80011950 	lb	at,6480(zero)
80014394:	80011750 	lb	at,5968(zero)
80014398:	80011950 	lb	at,6480(zero)
8001439c:	80011950 	lb	at,6480(zero)
800143a0:	80011838 	lb	at,6200(zero)
800143a4:	80011950 	lb	at,6480(zero)
800143a8:	80011950 	lb	at,6480(zero)
800143ac:	80011950 	lb	at,6480(zero)
800143b0:	80011950 	lb	at,6480(zero)
800143b4:	80011950 	lb	at,6480(zero)
800143b8:	80011950 	lb	at,6480(zero)
800143bc:	80011950 	lb	at,6480(zero)
800143c0:	80011950 	lb	at,6480(zero)
800143c4:	80011950 	lb	at,6480(zero)
800143c8:	800115e4 	lb	at,5604(zero)
800143cc:	800118b0 	lb	at,6320(zero)
800143d0:	80011658 	lb	at,5720(zero)
800143d4:	80011950 	lb	at,6480(zero)
800143d8:	80011950 	lb	at,6480(zero)
800143dc:	80011950 	lb	at,6480(zero)
800143e0:	80011950 	lb	at,6480(zero)
800143e4:	80011950 	lb	at,6480(zero)
800143e8:	80011950 	lb	at,6480(zero)
800143ec:	80011950 	lb	at,6480(zero)
800143f0:	80011950 	lb	at,6480(zero)
800143f4:	80011950 	lb	at,6480(zero)
800143f8:	80011950 	lb	at,6480(zero)
800143fc:	800116dc 	lb	at,5852(zero)
80014400:	80011950 	lb	at,6480(zero)
80014404:	80011950 	lb	at,6480(zero)
80014408:	80011950 	lb	at,6480(zero)
8001440c:	800118fc 	lb	at,6396(zero)
80014410:	80011950 	lb	at,6480(zero)
80014414:	80011750 	lb	at,5968(zero)
80014418:	80011950 	lb	at,6480(zero)
8001441c:	80011950 	lb	at,6480(zero)
80014420:	800117c4 	lb	at,6084(zero)
	...
80014430:	6d61696e 	0x6d61696e
80014434:	2e633a09 	sltiu	v1,s3,14857
80014438:	6d61696e 	0x6d61696e
8001443c:	20697320 	addi	t1,v1,29472
80014440:	73746172 	0x73746172
80014444:	74202e2e 	jalx	8080b8b8 <KVPT+0x40b8b8>
80014448:	2e0a0000 	sltiu	t2,s0,0
8001444c:	6d61696e 	0x6d61696e
80014450:	2e630000 	sltiu	v1,s3,0
80014454:	6d61696e 	0x6d61696e
80014458:	20697320 	addi	t1,v1,29472
8001445c:	6f766572 	0x6f766572
80014460:	20697320 	addi	t1,v1,29472
80014464:	6572726f 	0x6572726f
80014468:	72210000 	madd	s1,at
8001446c:	696e6974 	0x696e6974
80014470:	2e633a09 	sltiu	v1,s3,14857
80014474:	6d697073 	0x6d697073
80014478:	5f696e69 	0x5f696e69
8001447c:	74282920 	jalx	80a0a480 <KVPT+0x60a480>
80014480:	69732063 	0x69732063
80014484:	616c6c65 	0x616c6c65
80014488:	640a0000 	0x640a0000
8001448c:	696e6974 	0x696e6974
80014490:	2e630000 	sltiu	v1,s3,0
80014494:	5e5e5e5e 	0x5e5e5e5e
80014498:	5e5e5e5e 	0x5e5e5e5e
8001449c:	5e5e5e5e 	0x5e5e5e5e
800144a0:	5e5e5e5e 	0x5e5e5e5e
800144a4:	5e5e5e5e 	0x5e5e5e5e
800144a8:	5e5e5e5e 	0x5e5e5e5e
800144ac:	5e5e5e5e 	0x5e5e5e5e
800144b0:	5e5e5e5e 	0x5e5e5e5e
800144b4:	5e5e5e5e 	0x5e5e5e5e
800144b8:	5e000000 	bgtzl	s0,800144bc <theFatalMsg+0x29c>
800144bc:	656e762e 	0x656e762e
800144c0:	633a0965 	0x633a0965
800144c4:	6e76733a 	0x6e76733a
800144c8:	09636f6e 	j	858dbdb8 <KVPT+0x54dbdb8>
800144cc:	3a25780a 	xori	a1,s1,0x780a
800144d0:	00000000 	nop
800144d4:	656e762e 	0x656e762e
800144d8:	633a0965 	0x633a0965
800144dc:	6e765f69 	0x6e765f69
800144e0:	6e697420 	0x6e697420
800144e4:	73756363 	0x73756363
800144e8:	65737321 	0x65737321
800144ec:	0a000000 	j	88000000 <KVPT+0x7c00000>
800144f0:	656e762e 	0x656e762e
800144f4:	63000000 	0x63000000
800144f8:	656e765f 	0x656e765f
800144fc:	73657475 	0x73657475
80014500:	705f766d 	0x705f766d
80014504:	202d2070 	addi	t5,at,8304
80014508:	6167655f 	0x6167655f
8001450c:	616c6c6f 	0x616c6c6f
80014510:	63206572 	0x63206572
80014514:	726f720a 	0x726f720a
80014518:	00000000 	nop
8001451c:	2e2e2f69 	sltiu	t6,s1,12137
80014520:	6e636c75 	0x6e636c75
80014524:	64652f70 	0x64652f70
80014528:	6d61702e 	0x6d61702e
8001452c:	68000000 	0x68000000
80014530:	4b414444 	c2	0x1414444
80014534:	52206361 	beqzl	s1,8002d2bc <pages+0x15ce8>
80014538:	6c6c6564 	0x6c6c6564
8001453c:	20776974 	addi	s7,v1,26996
80014540:	6820696e 	0x6820696e
80014544:	76616c69 	jalx	8985b1a4 <KVPT+0x945b1a4>
80014548:	64207061 	0x64207061
8001454c:	20253038 	addi	a1,at,12344
80014550:	6c780000 	0x6c780000
80014554:	50414444 	beql	v0,at,80025668 <pages+0xe094>
80014558:	52206361 	beqzl	s1,8002d2e0 <pages+0x15d0c>
8001455c:	6c6c6564 	0x6c6c6564
80014560:	20776974 	addi	s7,v1,26996
80014564:	6820696e 	0x6820696e
80014568:	76616c69 	jalx	8985b1a4 <KVPT+0x945b1a4>
8001456c:	64206b76 	0x64206b76
80014570:	61202530 	0x61202530
80014574:	386c7800 	xori	t4,v1,0x7800
80014578:	5b253038 	0x5b253038
8001457c:	785d2066 	0x785d2066
80014580:	72656520 	0x72656520
80014584:	656e7620 	0x656e7620
80014588:	25303878 	addiu	s0,t1,14456
8001458c:	0a000000 	j	88000000 <KVPT+0x7c00000>
80014590:	70613270 	0x70613270
80014594:	61676520 	0x61676520
80014598:	63616c6c 	0x63616c6c
8001459c:	65642077 	0x65642077
800145a0:	69746820 	0x69746820
800145a4:	696e7661 	0x696e7661
800145a8:	6c696420 	0x6c696420
800145ac:	70613a20 	0x70613a20
800145b0:	25780000 	addiu	t8,t3,0
800145b4:	6920616d 	0x6920616d
800145b8:	206b696c 	addi	t3,v1,26988
800145bc:	6c656420 	0x6c656420
800145c0:	2e2e2e20 	sltiu	t6,s1,11808
800145c4:	0a000000 	j	88000000 <KVPT+0x7c00000>
800145c8:	74686572 	jalx	81a195c8 <KVPT+0x16195c8>
800145cc:	65206973 	0x65206973
800145d0:	206e6576 	addi	t6,v1,25974
800145d4:	65722072 	0x65722072
800145d8:	65616368 	0x65616368
800145dc:	6564206f 	0x6564206f
800145e0:	74686572 	jalx	81a195c8 <KVPT+0x16195c8>
800145e4:	77697365 	jalx	8da5cd94 <KVPT+0xd65cd94>
800145e8:	20657272 	addi	a1,v1,29298
800145ec:	6f722021 	0x6f722021
800145f0:	0a000000 	j	88000000 <KVPT+0x7c00000>
800145f4:	70616e69 	0x70616e69
800145f8:	63206174 	0x63206174
800145fc:	2025733a 	addi	a1,at,29498
80014600:	25643a20 	addiu	a0,t3,14880
80014604:	00000000 	nop
80014608:	5b253038 	0x5b253038
8001460c:	785d2064 	0x785d2064
80014610:	65737472 	0x65737472
80014614:	6f79696e 	0x6f79696e
80014618:	67202530 	0x67202530
8001461c:	38780a00 	xori	t8,v1,0xa00
80014620:	7379735f 	0x7379735f
80014624:	656e765f 	0x656e765f
80014628:	616c6c6f 	0x616c6c6f
8001462c:	6328293a 	0x6328293a
80014630:	74686520 	jalx	81a19480 <KVPT+0x1619480>
80014634:	6368696c 	0x6368696c
80014638:	64207063 	0x64207063
8001463c:	203a2578 	addi	k0,at,9592
80014640:	00000000 	nop
80014644:	73797363 	0x73797363
80014648:	616c6c5f 	0x616c6c5f
8001464c:	616c6c2e 	0x616c6c2e
80014650:	63000000 	0x63000000
80014654:	25730000 	addiu	s3,t3,0
80014658:	616c7265 	0x616c7265
8001465c:	61647920 	0x61647920
80014660:	72656376 	0x72656376
80014664:	696e6721 	0x696e6721
80014668:	00000000 	nop
8001466c:	696e7661 	0x696e7661
80014670:	6c696420 	0x6c696420
80014674:	64737476 	0x64737476
80014678:	613a2578 	0x613a2578
8001467c:	00000000 	nop
80014680:	5b253038 	0x5b253038
80014684:	785d2070 	0x785d2070
80014688:	6167655f 	0x6167655f
8001468c:	6c6f6f6b 	0x6c6f6f6b
80014690:	75702025 	jalx	85c08094 <KVPT+0x5808094>
80014694:	30387820 	andi	t8,at,0x7820
80014698:	6661696c 	0x6661696c
8001469c:	65642069 	0x65642069
800146a0:	6e207379 	0x6e207379
800146a4:	735f6970 	0x735f6970
800146a8:	635f6361 	0x635f6361
800146ac:	6e5f7365 	0x6e5f7365
800146b0:	6e640a00 	0x6e640a00
800146b4:	50687973 	beql	v1,t0,80032c84 <pages+0x1b6b0>
800146b8:	6963616c 	0x6963616c
800146bc:	206d656d 	addi	t5,v1,25965
800146c0:	6f72793a 	0x6f72793a
800146c4:	2025644b 	addi	a1,at,25675
800146c8:	20617661 	addi	at,v1,30305
800146cc:	696c6162 	0x696c6162
800146d0:	6c652c20 	0x6c652c20
800146d4:	00000000 	nop
800146d8:	62617365 	0x62617365
800146dc:	203d2025 	addi	sp,at,8229
800146e0:	644b2c20 	0x644b2c20
800146e4:	65787465 	0x65787465
800146e8:	6e646564 	0x6e646564
800146ec:	203d2025 	addi	sp,at,8229
800146f0:	644b0a00 	0x644b0a00
800146f4:	706d6170 	0x706d6170
800146f8:	2e633a09 	sltiu	v1,s3,14857
800146fc:	616c6c6f 	0x616c6c6f
80014700:	63206672 	0x63206672
80014704:	6f6d2025 	0x6f6d2025
80014708:	78000000 	0x78000000
8001470c:	20746f20 	addi	s4,v1,28448
80014710:	25780a00 	addiu	t8,t3,2560
80014714:	706d6170 	0x706d6170
80014718:	2e630000 	sltiu	v1,s3,0
8001471c:	6f757420 	0x6f757420
80014720:	6f66206d 	0x6f66206d
80014724:	656d6f72 	0x656d6f72
80014728:	74790a00 	jalx	81e42800 <KVPT+0x1a42800>
8001472c:	73697a65 	0x73697a65
80014730:	20697320 	addi	t1,v1,29472
80014734:	6e6f7420 	0x6e6f7420
80014738:	61206d75 	0x61206d75
8001473c:	6c746970 	0x6c746970
80014740:	6c65206f 	0x6c65206f
80014744:	66204259 	0x66204259
80014748:	3250470a 	andi	s0,s2,0x470a
8001474c:	00000000 	nop
80014750:	66726565 	0x66726565
80014754:	6d656d3a 	0x6d656d3a
80014758:	0925780a 	j	8495e028 <KVPT+0x455e028>
8001475c:	00000000 	nop
80014760:	616c6c6f 	0x616c6c6f
80014764:	63617465 	0x63617465
80014768:	64207061 	0x64207061
8001476c:	6765733a 	0x6765733a
80014770:	0925640a 	j	84959028 <KVPT+0x4559028>
80014774:	00000000 	nop
80014778:	66726565 	0x66726565
8001477c:	20706167 	addi	s0,v1,24935
80014780:	65733a09 	0x65733a09
80014784:	25640a00 	addiu	a0,t3,2560
80014788:	61737365 	0x61737365
8001478c:	7274696f 	0x7274696f
80014790:	6e206661 	0x6e206661
80014794:	696c6564 	0x696c6564
80014798:	3a202573 	xori	zero,s1,0x2573
8001479c:	00000000 	nop
800147a0:	70616765 	0x70616765
800147a4:	5f616c6c 	0x5f616c6c
800147a8:	6f632826 	0x6f632826
800147ac:	70703029 	0x70703029
800147b0:	203d3d20 	addi	sp,at,15648
800147b4:	30000000 	andi	zero,zero,0x0
800147b8:	70616765 	0x70616765
800147bc:	5f616c6c 	0x5f616c6c
800147c0:	6f632826 	0x6f632826
800147c4:	70703129 	0x70703129
800147c8:	203d3d20 	addi	sp,at,15648
800147cc:	30000000 	andi	zero,zero,0x0
800147d0:	70616765 	0x70616765
800147d4:	5f616c6c 	0x5f616c6c
800147d8:	6f632826 	0x6f632826
800147dc:	70703229 	0x70703229
800147e0:	203d3d20 	addi	sp,at,15648
800147e4:	30000000 	andi	zero,zero,0x0
800147e8:	70703120 	0x70703120
800147ec:	26262070 	addiu	a2,s1,8304
800147f0:	70312021 	clo	a0 or s1,at
800147f4:	3d207070 	0x3d207070
800147f8:	30000000 	andi	zero,zero,0x0
800147fc:	70703220 	0x70703220
80014800:	26262070 	addiu	a2,s1,8304
80014804:	70322021 	clo	a0 or s2,at
80014808:	3d207070 	0x3d207070
8001480c:	31202626 	andi	zero,t1,0x2626
80014810:	20707032 	addi	s0,v1,28722
80014814:	20213d20 	addi	at,at,15648
80014818:	70703000 	0x70703000
8001481c:	70616765 	0x70616765
80014820:	5f616c6c 	0x5f616c6c
80014824:	6f632826 	0x6f632826
80014828:	70702920 	0x70702920
8001482c:	3d3d202d 	0x3d3d202d
80014830:	455f4e4f 	0x455f4e4f
80014834:	5f4d454d 	0x5f4d454d
80014838:	00000000 	nop
8001483c:	70616765 	0x70616765
80014840:	5f696e73 	0x5f696e73
80014844:	65727428 	0x65727428
80014848:	626f6f74 	0x626f6f74
8001484c:	5f706764 	0x5f706764
80014850:	69722c20 	0x69722c20
80014854:	7070312c 	0x7070312c
80014858:	20307830 	addi	s0,at,30768
8001485c:	2c203029 	sltiu	zero,at,12329
80014860:	203c2030 	addi	gp,at,8240
80014864:	00000000 	nop
80014868:	70616765 	0x70616765
8001486c:	5f696e73 	0x5f696e73
80014870:	65727428 	0x65727428
80014874:	626f6f74 	0x626f6f74
80014878:	5f706764 	0x5f706764
8001487c:	69722c20 	0x69722c20
80014880:	7070312c 	0x7070312c
80014884:	20307830 	addi	s0,at,30768
80014888:	2c203029 	sltiu	zero,at,12329
8001488c:	203d3d20 	addi	sp,at,15648
80014890:	30000000 	andi	zero,zero,0x0
80014894:	5054455f 	beql	v0,s4,80025e14 <pages+0xe840>
80014898:	41444452 	0x41444452
8001489c:	28626f6f 	slti	v0,v1,28527
800148a0:	745f7067 	jalx	817dc19c <KVPT+0x13dc19c>
800148a4:	6469725b 	0x6469725b
800148a8:	305d2920 	andi	sp,v0,0x2920
800148ac:	3d3d2070 	0x3d3d2070
800148b0:	61676532 	0x61676532
800148b4:	70612870 	0x70612870
800148b8:	70302900 	0x70302900
800148bc:	76613270 	jalx	8984c9c0 <KVPT+0x944c9c0>
800148c0:	6128626f 	0x6128626f
800148c4:	6f745f70 	0x6f745f70
800148c8:	67646972 	0x67646972
800148cc:	2c203078 	sltiu	zero,at,12408
800148d0:	3029203d 	andi	t1,at,0x203d
800148d4:	3d207061 	0x3d207061
800148d8:	67653270 	0x67653270
800148dc:	61287070 	0x61287070
800148e0:	31290000 	andi	t1,t1,0x0
800148e4:	7070312d 	0x7070312d
800148e8:	3e70705f 	0x3e70705f
800148ec:	72656620 	0x72656620
800148f0:	3d3d2031 	0x3d3d2031
800148f4:	00000000 	nop
800148f8:	70616765 	0x70616765
800148fc:	5f696e73 	0x5f696e73
80014900:	65727428 	0x65727428
80014904:	626f6f74 	0x626f6f74
80014908:	5f706764 	0x5f706764
8001490c:	69722c20 	0x69722c20
80014910:	7070322c 	0x7070322c
80014914:	20425932 	addi	v0,v0,22834
80014918:	50472c20 	beql	v0,a3,8001f99c <pages+0x83c8>
8001491c:	3029203d 	andi	t1,at,0x203d
80014920:	3d203000 	0x3d203000
80014924:	76613270 	jalx	8984c9c0 <KVPT+0x944c9c0>
80014928:	6128626f 	0x6128626f
8001492c:	6f745f70 	0x6f745f70
80014930:	67646972 	0x67646972
80014934:	2c204259 	sltiu	zero,at,16985
80014938:	32504729 	andi	s0,s2,0x4729
8001493c:	203d3d20 	addi	sp,at,15648
80014940:	70616765 	0x70616765
80014944:	32706128 	andi	s0,s3,0x6128
80014948:	70703229 	0x70703229
8001494c:	00000000 	nop
80014950:	7070322d 	0x7070322d
80014954:	3e70705f 	0x3e70705f
80014958:	72656620 	0x72656620
8001495c:	3d3d2031 	0x3d3d2031
80014960:	00000000 	nop
80014964:	70616765 	0x70616765
80014968:	5f696e73 	0x5f696e73
8001496c:	65727428 	0x65727428
80014970:	626f6f74 	0x626f6f74
80014974:	5f706764 	0x5f706764
80014978:	69722c20 	0x69722c20
8001497c:	7070302c 	0x7070302c
80014980:	2050444d 	addi	s0,v0,17485
80014984:	41502c20 	0x41502c20
80014988:	3029203c 	andi	t1,at,0x203c
8001498c:	20300000 	addi	s0,at,0
80014990:	70616765 	0x70616765
80014994:	5f696e73 	0x5f696e73
80014998:	65727428 	0x65727428
8001499c:	626f6f74 	0x626f6f74
800149a0:	5f706764 	0x5f706764
800149a4:	69722c20 	0x69722c20
800149a8:	7070312c 	0x7070312c
800149ac:	20425932 	addi	v0,v0,22834
800149b0:	50472c20 	beql	v0,a3,8001fa34 <pages+0x8460>
800149b4:	3029203d 	andi	t1,at,0x203d
800149b8:	3d203000 	0x3d203000
800149bc:	76613270 	jalx	8984c9c0 <KVPT+0x944c9c0>
800149c0:	6128626f 	0x6128626f
800149c4:	6f745f70 	0x6f745f70
800149c8:	67646972 	0x67646972
800149cc:	2c204259 	sltiu	zero,at,16985
800149d0:	32504729 	andi	s0,s2,0x4729
800149d4:	203d3d20 	addi	sp,at,15648
800149d8:	70616765 	0x70616765
800149dc:	32706128 	andi	s0,s3,0x6128
800149e0:	70703129 	0x70703129
800149e4:	00000000 	nop
800149e8:	7070312d 	0x7070312d
800149ec:	3e70705f 	0x3e70705f
800149f0:	72656620 	0x72656620
800149f4:	3d3d2032 	0x3d3d2032
800149f8:	00000000 	nop
800149fc:	7070322d 	0x7070322d
80014a00:	3e70705f 	0x3e70705f
80014a04:	72656620 	0x72656620
80014a08:	3d3d2030 	0x3d3d2030
80014a0c:	00000000 	nop
80014a10:	70616765 	0x70616765
80014a14:	5f616c6c 	0x5f616c6c
80014a18:	6f632826 	0x6f632826
80014a1c:	70702920 	0x70702920
80014a20:	3d3d2030 	0x3d3d2030
80014a24:	20262620 	addi	a2,at,9760
80014a28:	7070203d 	0x7070203d
80014a2c:	3d207070 	0x3d207070
80014a30:	32000000 	andi	zero,s0,0x0
80014a34:	76613270 	jalx	8984c9c0 <KVPT+0x944c9c0>
80014a38:	6128626f 	0x6128626f
80014a3c:	6f745f70 	0x6f745f70
80014a40:	67646972 	0x67646972
80014a44:	2c203078 	sltiu	zero,at,12408
80014a48:	3029203d 	andi	t1,at,0x203d
80014a4c:	3d207e30 	0x3d207e30
80014a50:	00000000 	nop
80014a54:	76613270 	jalx	8984c9c0 <KVPT+0x944c9c0>
80014a58:	6128626f 	0x6128626f
80014a5c:	6f745f70 	0x6f745f70
80014a60:	67646972 	0x67646972
80014a64:	2c204259 	sltiu	zero,at,16985
80014a68:	32504729 	andi	s0,s2,0x4729
80014a6c:	203d3d20 	addi	sp,at,15648
80014a70:	7e300000 	0x7e300000
80014a74:	7070312d 	0x7070312d
80014a78:	3e70705f 	0x3e70705f
80014a7c:	72656620 	0x72656620
80014a80:	3d3d2030 	0x3d3d2030
80014a84:	00000000 	nop
80014a88:	70616765 	0x70616765
80014a8c:	5f616c6c 	0x5f616c6c
80014a90:	6f632826 	0x6f632826
80014a94:	70702920 	0x70702920
80014a98:	3d3d2030 	0x3d3d2030
80014a9c:	20262620 	addi	a2,at,9760
80014aa0:	7070203d 	0x7070203d
80014aa4:	3d207070 	0x3d207070
80014aa8:	31000000 	andi	zero,t0,0x0
80014aac:	7070302d 	0x7070302d
80014ab0:	3e70705f 	0x3e70705f
80014ab4:	72656620 	0x72656620
80014ab8:	3d3d2031 	0x3d3d2031
80014abc:	00000000 	nop
80014ac0:	70616765 	0x70616765
80014ac4:	5f636865 	0x5f636865
80014ac8:	636b2829 	0x636b2829
80014acc:	20737563 	addi	s3,v1,30051
80014ad0:	63656564 	0x63656564
80014ad4:	6564210a 	0x6564210a
80014ad8:	00000000 	nop
80014adc:	746c6220 	jalx	81b18880 <KVPT+0x1718880>
80014ae0:	72656669 	0x72656669
80014ae4:	6c6c2061 	0x6c6c2061
80014ae8:	6e642061 	0x6e642061
80014aec:	6c6c6f63 	0x6c6c6f63
80014af0:	20657272 	addi	a1,v1,29298
80014af4:	6f722100 	0x6f722100
80014af8:	3e3e3e3e 	0x3e3e3e3e
80014afc:	3e3e3e3e 	0x3e3e3e3e
80014b00:	3e3e3e3e 	0x3e3e3e3e
80014b04:	3e3e3e3e 	0x3e3e3e3e
80014b08:	3e3e3e3e 	0x3e3e3e3e
80014b0c:	3e3e6974 	0x3e3e6974
80014b10:	27732065 	addiu	s3,k1,8293
80014b14:	6e762773 	0x6e762773
80014b18:	207a6f6e 	addi	k0,v1,28526
80014b1c:	65000000 	0x65000000
80014b20:	5e5e5e5e 	0x5e5e5e5e
80014b24:	5e5e544f 	0x5e5e544f
80014b28:	4f204c4f 	c3	0x1204c4f
80014b2c:	575e5e5e 	bnel	k0,s8,8002c4a8 <pages+0x14ed4>
80014b30:	5e5e5e5e 	0x5e5e5e5e
80014b34:	5e5e0000 	0x5e5e0000
80014b38:	70616765 	0x70616765
80014b3c:	6f75743a 	0x6f75743a
80014b40:	09404040 	j	85010100 <KVPT+0x4c10100>
80014b44:	5f5f5f30 	0x5f5f5f30
80014b48:	7825785f 	0x7825785f
80014b4c:	5f5f4040 	0x5f5f4040
80014b50:	40202069 	0x40202069
80014b54:	6e732061 	0x6e732061
80014b58:	20706167 	addi	s0,v1,24935
80014b5c:	65200a00 	0x65200a00
Disassembly of section .reginfo:

80014b60 <.reginfo>:
80014b60:	ac000102 	sw	zero,258(zero)
	...
Disassembly of section .date:

80014b80 <mCONTEXT>:
80014b80:	00000000 	nop

80014b84 <delay>:
80014b84:	00000000 	nop

80014b88 <tlbra>:
	...

80014b90 <aoutcode>:
80014b90:	7f454c46 	0x7f454c46
80014b94:	01020100 	0x1020100
	...
80014ba0:	00020008 	0x20008
80014ba4:	00000001 	movf	zero,zero,$fcc0
80014ba8:	004000b0 	tge	v0,zero,0x2
80014bac:	00000034 	teq	zero,zero
80014bb0:	00000fb0 	tge	zero,zero,0x3e
80014bb4:	50001001 	beqzl	zero,80018bbc <pages+0x15e8>
80014bb8:	00340020 	add	zero,at,s4
80014bbc:	00030028 	0x30028
80014bc0:	000d000a 	movz	zero,zero,t5
80014bc4:	70000000 	madd	zero,zero
80014bc8:	00000094 	0x94
80014bcc:	00400094 	0x400094
80014bd0:	00400094 	0x400094
80014bd4:	00000018 	mult	zero,zero
80014bd8:	00000018 	mult	zero,zero
80014bdc:	00000004 	sllv	zero,zero,zero
80014be0:	00000004 	sllv	zero,zero,zero
80014be4:	00000001 	movf	zero,zero,$fcc0
80014be8:	00000094 	0x94
80014bec:	00400094 	0x400094
80014bf0:	00400094 	0x400094
80014bf4:	00000cb2 	tlt	zero,zero,0x32
80014bf8:	00000cb2 	tlt	zero,zero,0x32
80014bfc:	00000005 	0x5
80014c00:	00000010 	mfhi	zero
80014c04:	00000001 	movf	zero,zero,$fcc0
80014c08:	00000d50 	0xd50
80014c0c:	10000000 	b	80014c10 <aoutcode+0x80>
80014c10:	10000000 	b	80014c14 <aoutcode+0x84>
80014c14:	00000000 	nop
80014c18:	00000000 	nop
80014c1c:	00000006 	srlv	zero,zero,zero
80014c20:	00000010 	mfhi	zero
80014c24:	a0010030 	sb	at,48(zero)
	...
80014c38:	10007ff0 	b	80034bfc <pages+0x1d628>
80014c3c:	00000000 	nop
80014c40:	27bdffe8 	addiu	sp,sp,-24
80014c44:	afbf0014 	sw	ra,20(sp)
80014c48:	afb00010 	sw	s0,16(sp)
80014c4c:	3c100040 	lui	s0,0x40
80014c50:	26040b10 	addiu	a0,s0,2832
80014c54:	0c100299 	jal	80400a64 <KVPT+0xa64>
80014c58:	24050001 	li	a1,1
80014c5c:	1000fffd 	b	80014c54 <aoutcode+0xc4>
80014c60:	26040b10 	addiu	a0,s0,2832
	...
80014c70:	308400ff 	andi	a0,a0,0xff
80014c74:	3c029000 	lui	v0,0x9000
80014c78:	a0440000 	sb	a0,0(v0)
80014c7c:	03e00008 	jr	ra
80014c80:	00000000 	nop
80014c84:	3c029000 	lui	v0,0x9000
80014c88:	34420010 	ori	v0,v0,0x10
80014c8c:	a0400000 	sb	zero,0(v0)
80014c90:	03e00008 	jr	ra
80014c94:	00000000 	nop
80014c98:	27bdffe8 	addiu	sp,sp,-24
80014c9c:	afbf0014 	sw	ra,20(sp)
80014ca0:	afb00010 	sw	s0,16(sp)
80014ca4:	00808021 	move	s0,a0
80014ca8:	80840000 	lb	a0,0(a0)
80014cac:	10800006 	beqz	a0,80014cc8 <aoutcode+0x138>
80014cb0:	8fbf0014 	lw	ra,20(sp)
80014cb4:	0c100038 	jal	804000e0 <KVPT+0xe0>
80014cb8:	26100001 	addiu	s0,s0,1
80014cbc:	82040000 	lb	a0,0(s0)
80014cc0:	1480fffc 	bnez	a0,80014cb4 <aoutcode+0x124>
80014cc4:	8fbf0014 	lw	ra,20(sp)
80014cc8:	8fb00010 	lw	s0,16(sp)
80014ccc:	03e00008 	jr	ra
80014cd0:	27bd0018 	addiu	sp,sp,24
	...
80014ce0:	27bdff78 	addiu	sp,sp,-136
80014ce4:	afbf0084 	sw	ra,132(sp)
80014ce8:	afb40080 	sw	s4,128(sp)
80014cec:	afb3007c 	sw	s3,124(sp)
80014cf0:	afb20078 	sw	s2,120(sp)
80014cf4:	afb10074 	sw	s1,116(sp)
80014cf8:	afb00070 	sw	s0,112(sp)
80014cfc:	00809821 	move	s3,a0
80014d00:	00a0a021 	move	s4,a1
80014d04:	00c02821 	move	a1,a2
80014d08:	00e09021 	move	s2,a3
80014d0c:	80a30000 	lb	v1,0(a1)
80014d10:	1060000c 	beqz	v1,80014d44 <aoutcode+0x1b4>
80014d14:	00a08021 	move	s0,a1
80014d18:	10000148 	b	8001523c <aoutcode+0x6ac>
80014d1c:	24020025 	li	v0,37
80014d20:	00a08021 	move	s0,a1
80014d24:	26100001 	addiu	s0,s0,1
80014d28:	82020000 	lb	v0,0(s0)
80014d2c:	10400006 	beqz	v0,80014d48 <aoutcode+0x1b8>
80014d30:	02053023 	subu	a2,s0,a1
80014d34:	10430005 	beq	v0,v1,80014d4c <aoutcode+0x1bc>
80014d38:	2cc20051 	sltiu	v0,a2,81
80014d3c:	1000fffa 	b	80014d28 <aoutcode+0x198>
80014d40:	26100001 	addiu	s0,s0,1
80014d44:	02053023 	subu	a2,s0,a1
80014d48:	2cc20051 	sltiu	v0,a2,81
80014d4c:	14400007 	bnez	v0,80014d6c <aoutcode+0x1dc>
80014d50:	02802021 	move	a0,s4
80014d54:	3c050040 	lui	a1,0x40
80014d58:	24a50b20 	addiu	a1,a1,2848
80014d5c:	0260f809 	jalr	s3
80014d60:	24060018 	li	a2,24
80014d64:	1000ffff 	b	80014d64 <aoutcode+0x1d4>
80014d68:	00000000 	nop
80014d6c:	0260f809 	jalr	s3
80014d70:	02802021 	move	a0,s4
80014d74:	82020000 	lb	v0,0(s0)
80014d78:	10400123 	beqz	v0,80015208 <aoutcode+0x678>
80014d7c:	2402006c 	li	v0,108
80014d80:	82030001 	lb	v1,1(s0)
80014d84:	10620003 	beq	v1,v0,80014d94 <aoutcode+0x204>
80014d88:	26110001 	addiu	s1,s0,1
80014d8c:	10000003 	b	80014d9c <aoutcode+0x20c>
80014d90:	00002021 	move	a0,zero
80014d94:	26110002 	addiu	s1,s0,2
80014d98:	24040001 	li	a0,1
80014d9c:	82230000 	lb	v1,0(s1)
80014da0:	2402002d 	li	v0,45
80014da4:	14620004 	bne	v1,v0,80014db8 <aoutcode+0x228>
80014da8:	00003821 	move	a3,zero
80014dac:	26310001 	addiu	s1,s1,1
80014db0:	24070001 	li	a3,1
80014db4:	82230000 	lb	v1,0(s1)
80014db8:	24020030 	li	v0,48
80014dbc:	14620003 	bne	v1,v0,80014dcc <aoutcode+0x23c>
80014dc0:	24090020 	li	t1,32
80014dc4:	26310001 	addiu	s1,s1,1
80014dc8:	24090030 	li	t1,48
80014dcc:	82260000 	lb	a2,0(s1)
80014dd0:	24c2ffd0 	addiu	v0,a2,-48
80014dd4:	304200ff 	andi	v0,v0,0xff
80014dd8:	2c42000a 	sltiu	v0,v0,10
80014ddc:	1040000d 	beqz	v0,80014e14 <aoutcode+0x284>
80014de0:	00004021 	move	t0,zero
80014de4:	00081040 	sll	v0,t0,0x1
80014de8:	000818c0 	sll	v1,t0,0x3
80014dec:	00431021 	addu	v0,v0,v1
80014df0:	00461021 	addu	v0,v0,a2
80014df4:	2448ffd0 	addiu	t0,v0,-48
80014df8:	26310001 	addiu	s1,s1,1
80014dfc:	82260000 	lb	a2,0(s1)
80014e00:	24c2ffd0 	addiu	v0,a2,-48
80014e04:	304200ff 	andi	v0,v0,0xff
80014e08:	2c42000a 	sltiu	v0,v0,10
80014e0c:	1440fff6 	bnez	v0,80014de8 <aoutcode+0x258>
80014e10:	00081040 	sll	v0,t0,0x1
80014e14:	82230000 	lb	v1,0(s1)
80014e18:	2402002e 	li	v0,46
80014e1c:	14620011 	bne	v1,v0,80014e64 <aoutcode+0x2d4>
80014e20:	2c620079 	sltiu	v0,v1,121
80014e24:	26310001 	addiu	s1,s1,1
80014e28:	92220000 	lbu	v0,0(s1)
80014e2c:	2442ffd0 	addiu	v0,v0,-48
80014e30:	304200ff 	andi	v0,v0,0xff
80014e34:	2c42000a 	sltiu	v0,v0,10
80014e38:	10400008 	beqz	v0,80014e5c <aoutcode+0x2cc>
80014e3c:	00000000 	nop
80014e40:	26310001 	addiu	s1,s1,1
80014e44:	92220000 	lbu	v0,0(s1)
80014e48:	2442ffd0 	addiu	v0,v0,-48
80014e4c:	304200ff 	andi	v0,v0,0xff
80014e50:	2c42000a 	sltiu	v0,v0,10
80014e54:	1440fffa 	bnez	v0,80014e40 <aoutcode+0x2b0>
80014e58:	00000000 	nop
80014e5c:	82230000 	lb	v1,0(s1)
80014e60:	2c620079 	sltiu	v0,v1,121
80014e64:	104000e2 	beqz	v0,800151f0 <aoutcode+0x660>
80014e68:	00031080 	sll	v0,v1,0x2
80014e6c:	3c030040 	lui	v1,0x40
80014e70:	24630b40 	addiu	v1,v1,2880
80014e74:	00431021 	addu	v0,v0,v1
80014e78:	8c420000 	lw	v0,0(v0)
80014e7c:	00400008 	jr	v0
80014e80:	00000000 	nop
80014e84:	10800004 	beqz	a0,80014e98 <aoutcode+0x308>
80014e88:	00000000 	nop
80014e8c:	8e450000 	lw	a1,0(s2)
80014e90:	10000003 	b	80014ea0 <aoutcode+0x310>
80014e94:	26520004 	addiu	s2,s2,4
80014e98:	8e450000 	lw	a1,0(s2)
80014e9c:	26520004 	addiu	s2,s2,4
80014ea0:	afa80010 	sw	t0,16(sp)
80014ea4:	afa70014 	sw	a3,20(sp)
80014ea8:	afa90018 	sw	t1,24(sp)
80014eac:	afa0001c 	sw	zero,28(sp)
80014eb0:	27a40020 	addiu	a0,sp,32
80014eb4:	24060002 	li	a2,2
80014eb8:	0c100211 	jal	80400844 <KVPT+0x844>
80014ebc:	00003821 	move	a3,zero
80014ec0:	00403021 	move	a2,v0
80014ec4:	2c420051 	sltiu	v0,v0,81
80014ec8:	14400007 	bnez	v0,80014ee8 <aoutcode+0x358>
80014ecc:	02802021 	move	a0,s4
80014ed0:	3c050040 	lui	a1,0x40
80014ed4:	24a50b20 	addiu	a1,a1,2848
80014ed8:	0260f809 	jalr	s3
80014edc:	24060018 	li	a2,24
80014ee0:	1000ffff 	b	80014ee0 <aoutcode+0x350>
80014ee4:	00000000 	nop
80014ee8:	0260f809 	jalr	s3
80014eec:	27a50020 	addiu	a1,sp,32
80014ef0:	1000ff86 	b	80014d0c <aoutcode+0x17c>
80014ef4:	26250001 	addiu	a1,s1,1
80014ef8:	10800004 	beqz	a0,80014f0c <aoutcode+0x37c>
80014efc:	00000000 	nop
80014f00:	8e450000 	lw	a1,0(s2)
80014f04:	10000003 	b	80014f14 <aoutcode+0x384>
80014f08:	26520004 	addiu	s2,s2,4
80014f0c:	8e450000 	lw	a1,0(s2)
80014f10:	26520004 	addiu	s2,s2,4
80014f14:	04a10003 	bgez	a1,80014f24 <aoutcode+0x394>
80014f18:	00001021 	move	v0,zero
80014f1c:	00052823 	negu	a1,a1
80014f20:	24020001 	li	v0,1
80014f24:	afa80010 	sw	t0,16(sp)
80014f28:	afa70014 	sw	a3,20(sp)
80014f2c:	afa90018 	sw	t1,24(sp)
80014f30:	afa0001c 	sw	zero,28(sp)
80014f34:	27a40020 	addiu	a0,sp,32
80014f38:	2406000a 	li	a2,10
80014f3c:	0c100211 	jal	80400844 <KVPT+0x844>
80014f40:	00403821 	move	a3,v0
80014f44:	00403021 	move	a2,v0
80014f48:	2c420051 	sltiu	v0,v0,81
80014f4c:	14400007 	bnez	v0,80014f6c <aoutcode+0x3dc>
80014f50:	02802021 	move	a0,s4
80014f54:	3c050040 	lui	a1,0x40
80014f58:	24a50b20 	addiu	a1,a1,2848
80014f5c:	0260f809 	jalr	s3
80014f60:	24060018 	li	a2,24
80014f64:	1000ffff 	b	80014f64 <aoutcode+0x3d4>
80014f68:	00000000 	nop
80014f6c:	0260f809 	jalr	s3
80014f70:	27a50020 	addiu	a1,sp,32
80014f74:	1000ff65 	b	80014d0c <aoutcode+0x17c>
80014f78:	26250001 	addiu	a1,s1,1
80014f7c:	10800004 	beqz	a0,80014f90 <aoutcode+0x400>
80014f80:	00000000 	nop
80014f84:	8e450000 	lw	a1,0(s2)
80014f88:	10000003 	b	80014f98 <aoutcode+0x408>
80014f8c:	26520004 	addiu	s2,s2,4
80014f90:	8e450000 	lw	a1,0(s2)
80014f94:	26520004 	addiu	s2,s2,4
80014f98:	afa80010 	sw	t0,16(sp)
80014f9c:	afa70014 	sw	a3,20(sp)
80014fa0:	afa90018 	sw	t1,24(sp)
80014fa4:	afa0001c 	sw	zero,28(sp)
80014fa8:	27a40020 	addiu	a0,sp,32
80014fac:	24060008 	li	a2,8
80014fb0:	0c100211 	jal	80400844 <KVPT+0x844>
80014fb4:	00003821 	move	a3,zero
80014fb8:	00403021 	move	a2,v0
80014fbc:	2c420051 	sltiu	v0,v0,81
80014fc0:	14400007 	bnez	v0,80014fe0 <aoutcode+0x450>
80014fc4:	02802021 	move	a0,s4
80014fc8:	3c050040 	lui	a1,0x40
80014fcc:	24a50b20 	addiu	a1,a1,2848
80014fd0:	0260f809 	jalr	s3
80014fd4:	24060018 	li	a2,24
80014fd8:	1000ffff 	b	80014fd8 <aoutcode+0x448>
80014fdc:	00000000 	nop
80014fe0:	0260f809 	jalr	s3
80014fe4:	27a50020 	addiu	a1,sp,32
80014fe8:	1000ff48 	b	80014d0c <aoutcode+0x17c>
80014fec:	26250001 	addiu	a1,s1,1
80014ff0:	10800004 	beqz	a0,80015004 <aoutcode+0x474>
80014ff4:	00000000 	nop
80014ff8:	8e450000 	lw	a1,0(s2)
80014ffc:	10000003 	b	8001500c <aoutcode+0x47c>
80015000:	26520004 	addiu	s2,s2,4
80015004:	8e450000 	lw	a1,0(s2)
80015008:	26520004 	addiu	s2,s2,4
8001500c:	afa80010 	sw	t0,16(sp)
80015010:	afa70014 	sw	a3,20(sp)
80015014:	afa90018 	sw	t1,24(sp)
80015018:	afa0001c 	sw	zero,28(sp)
8001501c:	27a40020 	addiu	a0,sp,32
80015020:	2406000a 	li	a2,10
80015024:	0c100211 	jal	80400844 <KVPT+0x844>
80015028:	00003821 	move	a3,zero
8001502c:	00403021 	move	a2,v0
80015030:	2c420051 	sltiu	v0,v0,81
80015034:	14400007 	bnez	v0,80015054 <aoutcode+0x4c4>
80015038:	02802021 	move	a0,s4
8001503c:	3c050040 	lui	a1,0x40
80015040:	24a50b20 	addiu	a1,a1,2848
80015044:	0260f809 	jalr	s3
80015048:	24060018 	li	a2,24
8001504c:	1000ffff 	b	8001504c <aoutcode+0x4bc>
80015050:	00000000 	nop
80015054:	0260f809 	jalr	s3
80015058:	27a50020 	addiu	a1,sp,32
8001505c:	1000ff2b 	b	80014d0c <aoutcode+0x17c>
80015060:	26250001 	addiu	a1,s1,1
80015064:	10800004 	beqz	a0,80015078 <aoutcode+0x4e8>
80015068:	00000000 	nop
8001506c:	8e450000 	lw	a1,0(s2)
80015070:	10000003 	b	80015080 <aoutcode+0x4f0>
80015074:	26520004 	addiu	s2,s2,4
80015078:	8e450000 	lw	a1,0(s2)
8001507c:	26520004 	addiu	s2,s2,4
80015080:	afa80010 	sw	t0,16(sp)
80015084:	afa70014 	sw	a3,20(sp)
80015088:	afa90018 	sw	t1,24(sp)
8001508c:	afa0001c 	sw	zero,28(sp)
80015090:	27a40020 	addiu	a0,sp,32
80015094:	24060010 	li	a2,16
80015098:	0c100211 	jal	80400844 <KVPT+0x844>
8001509c:	00003821 	move	a3,zero
800150a0:	00403021 	move	a2,v0
800150a4:	2c420051 	sltiu	v0,v0,81
800150a8:	14400007 	bnez	v0,800150c8 <aoutcode+0x538>
800150ac:	02802021 	move	a0,s4
800150b0:	3c050040 	lui	a1,0x40
800150b4:	24a50b20 	addiu	a1,a1,2848
800150b8:	0260f809 	jalr	s3
800150bc:	24060018 	li	a2,24
800150c0:	1000ffff 	b	800150c0 <aoutcode+0x530>
800150c4:	00000000 	nop
800150c8:	0260f809 	jalr	s3
800150cc:	27a50020 	addiu	a1,sp,32
800150d0:	1000ff0e 	b	80014d0c <aoutcode+0x17c>
800150d4:	26250001 	addiu	a1,s1,1
800150d8:	10800004 	beqz	a0,800150ec <aoutcode+0x55c>
800150dc:	00000000 	nop
800150e0:	8e450000 	lw	a1,0(s2)
800150e4:	10000003 	b	800150f4 <aoutcode+0x564>
800150e8:	26520004 	addiu	s2,s2,4
800150ec:	8e450000 	lw	a1,0(s2)
800150f0:	26520004 	addiu	s2,s2,4
800150f4:	afa80010 	sw	t0,16(sp)
800150f8:	afa70014 	sw	a3,20(sp)
800150fc:	afa90018 	sw	t1,24(sp)
80015100:	24020001 	li	v0,1
80015104:	afa2001c 	sw	v0,28(sp)
80015108:	27a40020 	addiu	a0,sp,32
8001510c:	24060010 	li	a2,16
80015110:	0c100211 	jal	80400844 <KVPT+0x844>
80015114:	00003821 	move	a3,zero
80015118:	00403021 	move	a2,v0
8001511c:	2c420051 	sltiu	v0,v0,81
80015120:	14400007 	bnez	v0,80015140 <aoutcode+0x5b0>
80015124:	02802021 	move	a0,s4
80015128:	3c050040 	lui	a1,0x40
8001512c:	24a50b20 	addiu	a1,a1,2848
80015130:	0260f809 	jalr	s3
80015134:	24060018 	li	a2,24
80015138:	1000ffff 	b	80015138 <aoutcode+0x5a8>
8001513c:	00000000 	nop
80015140:	0260f809 	jalr	s3
80015144:	27a50020 	addiu	a1,sp,32
80015148:	1000fef0 	b	80014d0c <aoutcode+0x17c>
8001514c:	26250001 	addiu	a1,s1,1
80015150:	26500004 	addiu	s0,s2,4
80015154:	27a40020 	addiu	a0,sp,32
80015158:	82450003 	lb	a1,3(s2)
8001515c:	0c1001af 	jal	804006bc <KVPT+0x6bc>
80015160:	01003021 	move	a2,t0
80015164:	00403021 	move	a2,v0
80015168:	2c420051 	sltiu	v0,v0,81
8001516c:	14400007 	bnez	v0,8001518c <aoutcode+0x5fc>
80015170:	02802021 	move	a0,s4
80015174:	3c050040 	lui	a1,0x40
80015178:	24a50b20 	addiu	a1,a1,2848
8001517c:	0260f809 	jalr	s3
80015180:	24060018 	li	a2,24
80015184:	1000ffff 	b	80015184 <aoutcode+0x5f4>
80015188:	00000000 	nop
8001518c:	0260f809 	jalr	s3
80015190:	27a50020 	addiu	a1,sp,32
80015194:	1000001a 	b	80015200 <aoutcode+0x670>
80015198:	02009021 	move	s2,s0
8001519c:	26500004 	addiu	s0,s2,4
800151a0:	27a40020 	addiu	a0,sp,32
800151a4:	8e450000 	lw	a1,0(s2)
800151a8:	0c1001cf 	jal	8040073c <KVPT+0x73c>
800151ac:	01003021 	move	a2,t0
800151b0:	00403021 	move	a2,v0
800151b4:	2c420051 	sltiu	v0,v0,81
800151b8:	14400007 	bnez	v0,800151d8 <aoutcode+0x648>
800151bc:	02802021 	move	a0,s4
800151c0:	3c050040 	lui	a1,0x40
800151c4:	24a50b20 	addiu	a1,a1,2848
800151c8:	0260f809 	jalr	s3
800151cc:	24060018 	li	a2,24
800151d0:	1000ffff 	b	800151d0 <aoutcode+0x640>
800151d4:	00000000 	nop
800151d8:	0260f809 	jalr	s3
800151dc:	27a50020 	addiu	a1,sp,32
800151e0:	10000007 	b	80015200 <aoutcode+0x670>
800151e4:	02009021 	move	s2,s0
800151e8:	10000005 	b	80015200 <aoutcode+0x670>
800151ec:	2631ffff 	addiu	s1,s1,-1
800151f0:	02802021 	move	a0,s4
800151f4:	02202821 	move	a1,s1
800151f8:	0260f809 	jalr	s3
800151fc:	24060001 	li	a2,1
80015200:	1000fec2 	b	80014d0c <aoutcode+0x17c>
80015204:	26250001 	addiu	a1,s1,1
80015208:	02802021 	move	a0,s4
8001520c:	3c050040 	lui	a1,0x40
80015210:	24a50b3c 	addiu	a1,a1,2876
80015214:	0260f809 	jalr	s3
80015218:	24060001 	li	a2,1
8001521c:	8fbf0084 	lw	ra,132(sp)
80015220:	8fb40080 	lw	s4,128(sp)
80015224:	8fb3007c 	lw	s3,124(sp)
80015228:	8fb20078 	lw	s2,120(sp)
8001522c:	8fb10074 	lw	s1,116(sp)
80015230:	8fb00070 	lw	s0,112(sp)
80015234:	03e00008 	jr	ra
80015238:	27bd0088 	addiu	sp,sp,136
8001523c:	1462feb8 	bne	v1,v0,80014d20 <aoutcode+0x190>
80015240:	24030025 	li	v1,37
80015244:	1000febf 	b	80014d44 <aoutcode+0x1b4>
80015248:	00a08021 	move	s0,a1
8001524c:	00052e00 	sll	a1,a1,0x18
80015250:	00052e03 	sra	a1,a1,0x18
80015254:	0006182a 	slt	v1,zero,a2
80015258:	24020001 	li	v0,1
8001525c:	10e00015 	beqz	a3,800152b4 <aoutcode+0x724>
80015260:	0043300a 	movz	a2,v0,v1
80015264:	28c20002 	slti	v0,a2,2
80015268:	14400016 	bnez	v0,800152c4 <aoutcode+0x734>
8001526c:	a0850000 	sb	a1,0(a0)
80015270:	24030001 	li	v1,1
80015274:	24050020 	li	a1,32
80015278:	00831021 	addu	v0,a0,v1
8001527c:	24630001 	addiu	v1,v1,1
80015280:	10c30010 	beq	a2,v1,800152c4 <aoutcode+0x734>
80015284:	a0450000 	sb	a1,0(v0)
80015288:	1000fffc 	b	8001527c <aoutcode+0x6ec>
8001528c:	00831021 	addu	v0,a0,v1
80015290:	00001821 	move	v1,zero
80015294:	24080020 	li	t0,32
80015298:	00641021 	addu	v0,v1,a0
8001529c:	24630001 	addiu	v1,v1,1
800152a0:	1467fffd 	bne	v1,a3,80015298 <aoutcode+0x708>
800152a4:	a0480000 	sb	t0,0(v0)
800152a8:	00c41021 	addu	v0,a2,a0
800152ac:	10000005 	b	800152c4 <aoutcode+0x734>
800152b0:	a045ffff 	sb	a1,-1(v0)
800152b4:	24c7ffff 	addiu	a3,a2,-1
800152b8:	1ce0fff5 	bgtz	a3,80015290 <aoutcode+0x700>
800152bc:	00c41021 	addu	v0,a2,a0
800152c0:	a045ffff 	sb	a1,-1(v0)
800152c4:	03e00008 	jr	ra
800152c8:	00c01021 	move	v0,a2
800152cc:	80a20000 	lb	v0,0(a1)
800152d0:	14400003 	bnez	v0,800152e0 <aoutcode+0x750>
800152d4:	24a30001 	addiu	v1,a1,1
800152d8:	10000006 	b	800152f4 <aoutcode+0x764>
800152dc:	00004021 	move	t0,zero
800152e0:	00004021 	move	t0,zero
800152e4:	25080001 	addiu	t0,t0,1
800152e8:	80620000 	lb	v0,0(v1)
800152ec:	1440fffd 	bnez	v0,800152e4 <aoutcode+0x754>
800152f0:	24630001 	addiu	v1,v1,1
800152f4:	00c8102a 	slt	v0,a2,t0
800152f8:	14e00030 	bnez	a3,800153bc <aoutcode+0x82c>
800152fc:	0102300b 	movn	a2,t0,v0
80015300:	1000002a 	b	800153ac <aoutcode+0x81c>
80015304:	00c83823 	subu	a3,a2,t0
80015308:	00003821 	move	a3,zero
8001530c:	00871021 	addu	v0,a0,a3
80015310:	00a71821 	addu	v1,a1,a3
80015314:	90630000 	lbu	v1,0(v1)
80015318:	24e70001 	addiu	a3,a3,1
8001531c:	1507fffb 	bne	t0,a3,8001530c <aoutcode+0x77c>
80015320:	a0430000 	sb	v1,0(v0)
80015324:	0106102a 	slt	v0,t0,a2
80015328:	10400028 	beqz	v0,800153cc <aoutcode+0x83c>
8001532c:	00001821 	move	v1,zero
80015330:	00881021 	addu	v0,a0,t0
80015334:	24050020 	li	a1,32
80015338:	00c82023 	subu	a0,a2,t0
8001533c:	a0450000 	sb	a1,0(v0)
80015340:	24630001 	addiu	v1,v1,1
80015344:	10640021 	beq	v1,a0,800153cc <aoutcode+0x83c>
80015348:	24420001 	addiu	v0,v0,1
8001534c:	1000fffc 	b	80015340 <aoutcode+0x7b0>
80015350:	a0450000 	sb	a1,0(v0)
80015354:	00001821 	move	v1,zero
80015358:	24090020 	li	t1,32
8001535c:	00831021 	addu	v0,a0,v1
80015360:	24630001 	addiu	v1,v1,1
80015364:	1467fffd 	bne	v1,a3,8001535c <aoutcode+0x7cc>
80015368:	a0490000 	sb	t1,0(v0)
8001536c:	00e6102a 	slt	v0,a3,a2
80015370:	10400016 	beqz	v0,800153cc <aoutcode+0x83c>
80015374:	00872021 	addu	a0,a0,a3
80015378:	00e61023 	subu	v0,a3,a2
8001537c:	01021021 	addu	v0,t0,v0
80015380:	00a21821 	addu	v1,a1,v0
80015384:	00002821 	move	a1,zero
80015388:	00c73823 	subu	a3,a2,a3
8001538c:	90620000 	lbu	v0,0(v1)
80015390:	a0820000 	sb	v0,0(a0)
80015394:	24a50001 	addiu	a1,a1,1
80015398:	24630001 	addiu	v1,v1,1
8001539c:	10a7000b 	beq	a1,a3,800153cc <aoutcode+0x83c>
800153a0:	24840001 	addiu	a0,a0,1
800153a4:	1000fffa 	b	80015390 <aoutcode+0x800>
800153a8:	90620000 	lbu	v0,0(v1)
800153ac:	1ce0ffe9 	bgtz	a3,80015354 <aoutcode+0x7c4>
800153b0:	00e6102a 	slt	v0,a3,a2
800153b4:	1000ffee 	b	80015370 <aoutcode+0x7e0>
800153b8:	00000000 	nop
800153bc:	1d00ffd2 	bgtz	t0,80015308 <aoutcode+0x778>
800153c0:	0106102a 	slt	v0,t0,a2
800153c4:	1000ffd8 	b	80015328 <aoutcode+0x798>
800153c8:	00000000 	nop
800153cc:	03e00008 	jr	ra
800153d0:	00c01021 	move	v0,a2
800153d4:	8fa90010 	lw	t1,16(sp)
800153d8:	8fac0014 	lw	t4,20(sp)
800153dc:	8fab001c 	lw	t3,28(sp)
800153e0:	83aa001b 	lb	t2,27(sp)
800153e4:	00804021 	move	t0,a0
800153e8:	00a6001b 	divu	zero,a1,a2
800153ec:	00c001f4 	teq	a2,zero,0x7
800153f0:	00001810 	mfhi	v1
800153f4:	2862000a 	slti	v0,v1,10
800153f8:	10400004 	beqz	v0,8001540c <aoutcode+0x87c>
800153fc:	24620030 	addiu	v0,v1,48
80015400:	a1020000 	sb	v0,0(t0)
80015404:	1000000b 	b	80015434 <aoutcode+0x8a4>
80015408:	25080001 	addiu	t0,t0,1
8001540c:	11600005 	beqz	t3,80015424 <aoutcode+0x894>
80015410:	24620057 	addiu	v0,v1,87
80015414:	24620037 	addiu	v0,v1,55
80015418:	a1020000 	sb	v0,0(t0)
8001541c:	10000003 	b	8001542c <aoutcode+0x89c>
80015420:	25080001 	addiu	t0,t0,1
80015424:	a1020000 	sb	v0,0(t0)
80015428:	25080001 	addiu	t0,t0,1
8001542c:	00a6001b 	divu	zero,a1,a2
80015430:	00c001f4 	teq	a2,zero,0x7
80015434:	00002812 	mflo	a1
80015438:	14a0ffeb 	bnez	a1,800153e8 <aoutcode+0x858>
8001543c:	00000000 	nop
80015440:	10e00005 	beqz	a3,80015458 <aoutcode+0x8c8>
80015444:	01043023 	subu	a2,t0,a0
80015448:	2402002d 	li	v0,45
8001544c:	a1020000 	sb	v0,0(t0)
80015450:	25080001 	addiu	t0,t0,1
80015454:	01043023 	subu	a2,t0,a0
80015458:	0126102a 	slt	v0,t1,a2
8001545c:	00c2480b 	movn	t1,a2,v0
80015460:	24020020 	li	v0,32
80015464:	10e00032 	beqz	a3,80015530 <aoutcode+0x9a0>
80015468:	004c500b 	movn	t2,v0,t4
8001546c:	15800031 	bnez	t4,80015534 <aoutcode+0x9a4>
80015470:	00c9102a 	slt	v0,a2,t1
80015474:	24020030 	li	v0,48
80015478:	1542002e 	bne	t2,v0,80015534 <aoutcode+0x9a4>
8001547c:	00c9102a 	slt	v0,a2,t1
80015480:	24c6ffff 	addiu	a2,a2,-1
80015484:	2528ffff 	addiu	t0,t1,-1
80015488:	00c8102a 	slt	v0,a2,t0
8001548c:	10400008 	beqz	v0,800154b0 <aoutcode+0x920>
80015490:	01061023 	subu	v0,t0,a2
80015494:	00861821 	addu	v1,a0,a2
80015498:	00002821 	move	a1,zero
8001549c:	24070030 	li	a3,48
800154a0:	a0670000 	sb	a3,0(v1)
800154a4:	24a50001 	addiu	a1,a1,1
800154a8:	14a2fffd 	bne	a1,v0,800154a0 <aoutcode+0x910>
800154ac:	24630001 	addiu	v1,v1,1
800154b0:	00891821 	addu	v1,a0,t1
800154b4:	2402002d 	li	v0,45
800154b8:	1000000d 	b	800154f0 <aoutcode+0x960>
800154bc:	a062ffff 	sb	v0,-1(v1)
800154c0:	a0aa0000 	sb	t2,0(a1)
800154c4:	24630001 	addiu	v1,v1,1
800154c8:	01261023 	subu	v0,t1,a2
800154cc:	1462fffc 	bne	v1,v0,800154c0 <aoutcode+0x930>
800154d0:	24a50001 	addiu	a1,a1,1
800154d4:	11800006 	beqz	t4,800154f0 <aoutcode+0x960>
800154d8:	00000000 	nop
800154dc:	24c6ffff 	addiu	a2,a2,-1
800154e0:	1cc00005 	bgtz	a2,800154f8 <aoutcode+0x968>
800154e4:	00003821 	move	a3,zero
800154e8:	03e00008 	jr	ra
800154ec:	01201021 	move	v0,t1
800154f0:	1000fffb 	b	800154e0 <aoutcode+0x950>
800154f4:	2526ffff 	addiu	a2,t1,-1
800154f8:	00802821 	move	a1,a0
800154fc:	00862021 	addu	a0,a0,a2
80015500:	80a20000 	lb	v0,0(a1)
80015504:	90830000 	lbu	v1,0(a0)
80015508:	a0a30000 	sb	v1,0(a1)
8001550c:	a0820000 	sb	v0,0(a0)
80015510:	24e70001 	addiu	a3,a3,1
80015514:	24c6ffff 	addiu	a2,a2,-1
80015518:	24a50001 	addiu	a1,a1,1
8001551c:	00e6102a 	slt	v0,a3,a2
80015520:	10400009 	beqz	v0,80015548 <aoutcode+0x9b8>
80015524:	2484ffff 	addiu	a0,a0,-1
80015528:	1000fff6 	b	80015504 <aoutcode+0x974>
8001552c:	80a20000 	lb	v0,0(a1)
80015530:	00c9102a 	slt	v0,a2,t1
80015534:	1040ffe7 	beqz	v0,800154d4 <aoutcode+0x944>
80015538:	00000000 	nop
8001553c:	00862821 	addu	a1,a0,a2
80015540:	1000ffdf 	b	800154c0 <aoutcode+0x930>
80015544:	00001821 	move	v1,zero
80015548:	01201021 	move	v0,t1
8001554c:	03e00008 	jr	ra
80015550:	00000000 	nop
	...
80015560:	27bdffe0 	addiu	sp,sp,-32
80015564:	afbf001c 	sw	ra,28(sp)
80015568:	afb20018 	sw	s2,24(sp)
8001556c:	afb10014 	sw	s1,20(sp)
80015570:	afb00010 	sw	s0,16(sp)
80015574:	24020001 	li	v0,1
80015578:	14c20013 	bne	a2,v0,800155c8 <aoutcode+0xa38>
8001557c:	00c09021 	move	s2,a2
80015580:	80a20000 	lb	v0,0(a1)
80015584:	14400013 	bnez	v0,800155d4 <aoutcode+0xa44>
80015588:	00a08021 	move	s0,a1
8001558c:	10000014 	b	800155e0 <aoutcode+0xa50>
80015590:	8fbf001c 	lw	ra,28(sp)
80015594:	0c100038 	jal	804000e0 <KVPT+0xe0>
80015598:	82040000 	lb	a0,0(s0)
8001559c:	82030000 	lb	v1,0(s0)
800155a0:	2402000a 	li	v0,10
800155a4:	14620003 	bne	v1,v0,800155b4 <aoutcode+0xa24>
800155a8:	00000000 	nop
800155ac:	0c100038 	jal	804000e0 <KVPT+0xe0>
800155b0:	2404000a 	li	a0,10
800155b4:	26310001 	addiu	s1,s1,1
800155b8:	12510008 	beq	s2,s1,800155dc <aoutcode+0xa4c>
800155bc:	26100001 	addiu	s0,s0,1
800155c0:	1000fff4 	b	80015594 <aoutcode+0xa04>
800155c4:	00000000 	nop
800155c8:	18c00005 	blez	a2,800155e0 <aoutcode+0xa50>
800155cc:	8fbf001c 	lw	ra,28(sp)
800155d0:	00a08021 	move	s0,a1
800155d4:	1000ffef 	b	80015594 <aoutcode+0xa04>
800155d8:	00008821 	move	s1,zero
800155dc:	8fbf001c 	lw	ra,28(sp)
800155e0:	8fb20018 	lw	s2,24(sp)
800155e4:	8fb10014 	lw	s1,20(sp)
800155e8:	8fb00010 	lw	s0,16(sp)
800155ec:	03e00008 	jr	ra
800155f0:	27bd0020 	addiu	sp,sp,32
800155f4:	27bdffe0 	addiu	sp,sp,-32
800155f8:	afbf0018 	sw	ra,24(sp)
800155fc:	afa50024 	sw	a1,36(sp)
80015600:	afa60028 	sw	a2,40(sp)
80015604:	afa7002c 	sw	a3,44(sp)
80015608:	00803021 	move	a2,a0
8001560c:	27a70024 	addiu	a3,sp,36
80015610:	afa70010 	sw	a3,16(sp)
80015614:	3c040040 	lui	a0,0x40
80015618:	248409d0 	addiu	a0,a0,2512
8001561c:	0c100054 	jal	80400150 <KVPT+0x150>
80015620:	00002821 	move	a1,zero
80015624:	8fbf0018 	lw	ra,24(sp)
80015628:	03e00008 	jr	ra
8001562c:	27bd0020 	addiu	sp,sp,32
80015630:	27bdffe0 	addiu	sp,sp,-32
80015634:	afbf001c 	sw	ra,28(sp)
80015638:	afb00018 	sw	s0,24(sp)
8001563c:	00801821 	move	v1,a0
80015640:	00a04021 	move	t0,a1
80015644:	afa7002c 	sw	a3,44(sp)
80015648:	00c08021 	move	s0,a2
8001564c:	27a2002c 	addiu	v0,sp,44
80015650:	afa20010 	sw	v0,16(sp)
80015654:	3c040040 	lui	a0,0x40
80015658:	24840d30 	addiu	a0,a0,3376
8001565c:	00602821 	move	a1,v1
80015660:	0c100299 	jal	80400a64 <KVPT+0xa64>
80015664:	01003021 	move	a2,t0
80015668:	3c040040 	lui	a0,0x40
8001566c:	248409d0 	addiu	a0,a0,2512
80015670:	00002821 	move	a1,zero
80015674:	02003021 	move	a2,s0
80015678:	0c100054 	jal	80400150 <KVPT+0x150>
8001567c:	8fa70010 	lw	a3,16(sp)
80015680:	3c040040 	lui	a0,0x40
80015684:	0c100299 	jal	80400a64 <KVPT+0xa64>
80015688:	24840d44 	addiu	a0,a0,3396
8001568c:	1000ffff 	b	8001568c <aoutcode+0xafc>
80015690:	00000000 	nop
	...
800156a0:	25642000 	addiu	a0,t3,8192
	...
800156b0:	66617461 	0x66617461
800156b4:	6c206572 	0x6c206572
800156b8:	726f7220 	0x726f7220
800156bc:	696e206c 	0x696e206c
800156c0:	705f5072 	0x705f5072
800156c4:	696e7421 	0x696e7421
	...
800156d0:	00400658 	0x400658
800156d4:	00400660 	0x400660
800156d8:	00400660 	0x400660
800156dc:	00400660 	0x400660
800156e0:	00400660 	0x400660
800156e4:	00400660 	0x400660
800156e8:	00400660 	0x400660
800156ec:	00400660 	0x400660
800156f0:	00400660 	0x400660
800156f4:	00400660 	0x400660
800156f8:	00400660 	0x400660
800156fc:	00400660 	0x400660
80015700:	00400660 	0x400660
80015704:	00400660 	0x400660
80015708:	00400660 	0x400660
8001570c:	00400660 	0x400660
80015710:	00400660 	0x400660
80015714:	00400660 	0x400660
80015718:	00400660 	0x400660
8001571c:	00400660 	0x400660
80015720:	00400660 	0x400660
80015724:	00400660 	0x400660
80015728:	00400660 	0x400660
8001572c:	00400660 	0x400660
80015730:	00400660 	0x400660
80015734:	00400660 	0x400660
80015738:	00400660 	0x400660
8001573c:	00400660 	0x400660
80015740:	00400660 	0x400660
80015744:	00400660 	0x400660
80015748:	00400660 	0x400660
8001574c:	00400660 	0x400660
80015750:	00400660 	0x400660
80015754:	00400660 	0x400660
80015758:	00400660 	0x400660
8001575c:	00400660 	0x400660
80015760:	00400660 	0x400660
80015764:	00400660 	0x400660
80015768:	00400660 	0x400660
8001576c:	00400660 	0x400660
80015770:	00400660 	0x400660
80015774:	00400660 	0x400660
80015778:	00400660 	0x400660
8001577c:	00400660 	0x400660
80015780:	00400660 	0x400660
80015784:	00400660 	0x400660
80015788:	00400660 	0x400660
8001578c:	00400660 	0x400660
80015790:	00400660 	0x400660
80015794:	00400660 	0x400660
80015798:	00400660 	0x400660
8001579c:	00400660 	0x400660
800157a0:	00400660 	0x400660
800157a4:	00400660 	0x400660
800157a8:	00400660 	0x400660
800157ac:	00400660 	0x400660
800157b0:	00400660 	0x400660
800157b4:	00400660 	0x400660
800157b8:	00400660 	0x400660
800157bc:	00400660 	0x400660
800157c0:	00400660 	0x400660
800157c4:	00400660 	0x400660
800157c8:	00400660 	0x400660
800157cc:	00400660 	0x400660
800157d0:	00400660 	0x400660
800157d4:	00400660 	0x400660
800157d8:	00400660 	0x400660
800157dc:	00400660 	0x400660
800157e0:	00400368 	0x400368
800157e4:	00400660 	0x400660
800157e8:	00400660 	0x400660
800157ec:	00400660 	0x400660
800157f0:	00400660 	0x400660
800157f4:	00400660 	0x400660
800157f8:	00400660 	0x400660
800157fc:	00400660 	0x400660
80015800:	00400660 	0x400660
80015804:	00400660 	0x400660
80015808:	00400660 	0x400660
8001580c:	004003ec 	0x4003ec
80015810:	00400660 	0x400660
80015814:	00400660 	0x400660
80015818:	00400660 	0x400660
8001581c:	00400660 	0x400660
80015820:	00400660 	0x400660
80015824:	00400460 	0x400460
80015828:	00400660 	0x400660
8001582c:	00400660 	0x400660
80015830:	00400548 	0x400548
80015834:	00400660 	0x400660
80015838:	00400660 	0x400660
8001583c:	00400660 	0x400660
80015840:	00400660 	0x400660
80015844:	00400660 	0x400660
80015848:	00400660 	0x400660
8001584c:	00400660 	0x400660
80015850:	00400660 	0x400660
80015854:	00400660 	0x400660
80015858:	004002f4 	teq	v0,zero,0xb
8001585c:	004005c0 	0x4005c0
80015860:	00400368 	0x400368
80015864:	00400660 	0x400660
80015868:	00400660 	0x400660
8001586c:	00400660 	0x400660
80015870:	00400660 	0x400660
80015874:	00400660 	0x400660
80015878:	00400660 	0x400660
8001587c:	00400660 	0x400660
80015880:	00400660 	0x400660
80015884:	00400660 	0x400660
80015888:	00400660 	0x400660
8001588c:	004003ec 	0x4003ec
80015890:	00400660 	0x400660
80015894:	00400660 	0x400660
80015898:	00400660 	0x400660
8001589c:	0040060c 	syscall	0x10018
800158a0:	00400660 	0x400660
800158a4:	00400460 	0x400460
800158a8:	00400660 	0x400660
800158ac:	00400660 	0x400660
800158b0:	004004d4 	0x4004d4
	...
800158c0:	70616e69 	0x70616e69
800158c4:	63206174 	0x63206174
800158c8:	2025733a 	addi	a1,at,29498
800158cc:	25643a20 	addiu	a0,t3,14880
800158d0:	00000000 	nop
800158d4:	0a000000 	j	88000000 <KVPT+0x7c00000>
800158d8:	00000000 	nop
800158dc:	00000000 	nop
800158e0:	00474343 	0x474343
800158e4:	3a202847 	xori	zero,s1,0x2847
800158e8:	4e552920 	c3	0x552920
800158ec:	342e302e 	ori	t6,at,0x302e
800158f0:	30202844 	andi	zero,at,0x2844
800158f4:	454e5820 	0x454e5820
800158f8:	454c444b 	0x454c444b
800158fc:	20342e31 	addi	s4,at,11825
80015900:	20342e30 	addi	s4,at,11824
80015904:	2e302900 	sltiu	s0,s1,10496
80015908:	00474343 	0x474343
8001590c:	3a202847 	xori	zero,s1,0x2847
80015910:	4e552920 	c3	0x552920
80015914:	342e302e 	ori	t6,at,0x302e
80015918:	30202844 	andi	zero,at,0x2844
8001591c:	454e5820 	0x454e5820
80015920:	454c444b 	0x454c444b
80015924:	20342e31 	addi	s4,at,11825
80015928:	20342e30 	addi	s4,at,11824
8001592c:	2e302900 	sltiu	s0,s1,10496
80015930:	00474343 	0x474343
80015934:	3a202847 	xori	zero,s1,0x2847
80015938:	4e552920 	c3	0x552920
8001593c:	342e302e 	ori	t6,at,0x302e
80015940:	30202844 	andi	zero,at,0x2844
80015944:	454e5820 	0x454e5820
80015948:	454c444b 	0x454c444b
8001594c:	20342e31 	addi	s4,at,11825
80015950:	20342e30 	addi	s4,at,11824
80015954:	2e302900 	sltiu	s0,s1,10496
80015958:	00474343 	0x474343
8001595c:	3a202847 	xori	zero,s1,0x2847
80015960:	4e552920 	c3	0x552920
80015964:	342e302e 	ori	t6,at,0x302e
80015968:	30202844 	andi	zero,at,0x2844
8001596c:	454e5820 	0x454e5820
80015970:	454c444b 	0x454c444b
80015974:	20342e31 	addi	s4,at,11825
80015978:	20342e30 	addi	s4,at,11824
8001597c:	2e302900 	sltiu	s0,s1,10496
80015980:	004000b0 	tge	v0,zero,0x2
80015984:	80010000 	lb	at,0(zero)
80015988:	fffffffc 	sdc3	$31,-4(ra)
	...
80015994:	00000018 	mult	zero,zero
80015998:	0000001d 	0x1d
8001599c:	0000001f 	0x1f
800159a0:	004000e0 	0x4000e0
	...
800159b8:	0000001d 	0x1d
800159bc:	0000001f 	0x1f
800159c0:	004000f4 	teq	v0,zero,0x3
	...
800159d8:	0000001d 	0x1d
800159dc:	0000001f 	0x1f
800159e0:	00400108 	0x400108
800159e4:	80010000 	lb	at,0(zero)
800159e8:	fffffffc 	sdc3	$31,-4(ra)
	...
800159f4:	00000018 	mult	zero,zero
800159f8:	0000001d 	0x1d
800159fc:	0000001f 	0x1f
80015a00:	00400150 	0x400150
80015a04:	801f0000 	lb	ra,0(zero)
80015a08:	fffffffc 	sdc3	$31,-4(ra)
	...
80015a14:	00000088 	0x88
80015a18:	0000001d 	0x1d
80015a1c:	0000001f 	0x1f
80015a20:	004006bc 	0x4006bc
	...
80015a38:	0000001d 	0x1d
80015a3c:	0000001f 	0x1f
80015a40:	0040073c 	0x40073c
	...
80015a58:	0000001d 	0x1d
80015a5c:	0000001f 	0x1f
80015a60:	00400844 	0x400844
	...
80015a78:	0000001d 	0x1d
80015a7c:	0000001f 	0x1f
80015a80:	004009d0 	0x4009d0
80015a84:	80070000 	lb	a3,0(zero)
80015a88:	fffffffc 	sdc3	$31,-4(ra)
	...
80015a94:	00000020 	add	zero,zero,zero
80015a98:	0000001d 	0x1d
80015a9c:	0000001f 	0x1f
80015aa0:	00400a64 	0x400a64
80015aa4:	80000000 	lb	zero,0(zero)
80015aa8:	fffffff8 	sdc3	$31,-8(ra)
	...
80015ab4:	00000020 	add	zero,zero,zero
80015ab8:	0000001d 	0x1d
80015abc:	0000001f 	0x1f
80015ac0:	00400aa0 	0x400aa0
80015ac4:	80010000 	lb	at,0(zero)
80015ac8:	fffffffc 	sdc3	$31,-4(ra)
	...
80015ad4:	00000020 	add	zero,zero,zero
80015ad8:	0000001d 	0x1d
80015adc:	0000001f 	0x1f
80015ae0:	002e7379 	0x2e7379
80015ae4:	6d746162 	0x6d746162
80015ae8:	002e7374 	teq	at,t6,0x1cd
80015aec:	72746162 	0x72746162
80015af0:	002e7368 	0x2e7368
80015af4:	73747274 	0x73747274
80015af8:	6162002e 	0x6162002e
80015afc:	72656769 	0x72656769
80015b00:	6e666f00 	0x6e666f00
80015b04:	2e746578 	sltiu	s4,s3,25976
80015b08:	74002e72 	jalx	8000b9c8 <except_vec3+0xb948>
80015b0c:	6f646174 	0x6f646174
80015b10:	61002e64 	0x61002e64
80015b14:	61746100 	0x61746100
80015b18:	2e736273 	sltiu	s3,s3,25203
80015b1c:	73002e62 	0x73002e62
80015b20:	7373002e 	0x7373002e
80015b24:	636f6d6d 	0x636f6d6d
80015b28:	656e7400 	0x656e7400
80015b2c:	2e706472 	sltiu	s0,s3,25714
80015b30:	002e6d64 	0x2e6d64
80015b34:	65627567 	0x65627567
80015b38:	2e616269 	sltiu	at,s3,25193
80015b3c:	33320000 	andi	s2,t9,0x0
	...
80015b68:	0000001b 	divu	zero,zero,zero
80015b6c:	70000006 	0x70000006
80015b70:	00000002 	srl	zero,zero,0x0
80015b74:	00400094 	0x400094
80015b78:	00000094 	0x94
80015b7c:	00000018 	mult	zero,zero
	...
80015b88:	00000004 	sllv	zero,zero,zero
80015b8c:	00000018 	mult	zero,zero
80015b90:	00000024 	and	zero,zero,zero
80015b94:	00000001 	movf	zero,zero,$fcc0
80015b98:	00000006 	srlv	zero,zero,zero
80015b9c:	004000b0 	tge	v0,zero,0x2
80015ba0:	000000b0 	tge	zero,zero,0x2
80015ba4:	00000a60 	0xa60
	...
80015bb0:	00000010 	mfhi	zero
80015bb4:	00000000 	nop
80015bb8:	0000002a 	slt	zero,zero,zero
80015bbc:	00000001 	movf	zero,zero,$fcc0
80015bc0:	00000002 	srl	zero,zero,0x0
80015bc4:	00400b10 	0x400b10
80015bc8:	00000b10 	0xb10
80015bcc:	00000236 	tne	zero,zero,0x8
	...
80015bd8:	00000010 	mfhi	zero
80015bdc:	00000000 	nop
80015be0:	00000032 	tlt	zero,zero
80015be4:	00000001 	movf	zero,zero,$fcc0
80015be8:	00000003 	sra	zero,zero,0x0
80015bec:	10000000 	b	80015bf0 <aoutcode+0x1060>
80015bf0:	00000d50 	0xd50
	...
80015c00:	00000010 	mfhi	zero
80015c04:	00000000 	nop
80015c08:	00000038 	0x38
80015c0c:	00000008 	jr	zero
80015c10:	10000003 	b	80015c20 <aoutcode+0x1090>
80015c14:	10000000 	b	80015c18 <aoutcode+0x1088>
80015c18:	00000d50 	0xd50
	...
80015c28:	00000001 	movf	zero,zero,$fcc0
80015c2c:	00000000 	nop
80015c30:	0000003e 	0x3e
80015c34:	00000008 	jr	zero
80015c38:	00000003 	sra	zero,zero,0x0
80015c3c:	10000000 	b	80015c40 <aoutcode+0x10b0>
80015c40:	00000d50 	0xd50
	...
80015c50:	00000010 	mfhi	zero
80015c54:	00000000 	nop
80015c58:	00000043 	sra	zero,zero,0x1
80015c5c:	00000001 	movf	zero,zero,$fcc0
	...
80015c68:	00000d50 	0xd50
80015c6c:	000000a0 	0xa0
	...
80015c78:	00000001 	movf	zero,zero,$fcc0
80015c7c:	00000000 	nop
80015c80:	0000004c 	syscall	0x1
80015c84:	00000001 	movf	zero,zero,$fcc0
	...
80015c90:	00000df0 	tge	zero,zero,0x37
80015c94:	00000160 	0x160
	...
80015ca0:	00000004 	sllv	zero,zero,zero
80015ca4:	00000000 	nop
80015ca8:	00000051 	0x51
80015cac:	00000001 	movf	zero,zero,$fcc0
	...
80015cb8:	00000f50 	0xf50
	...
80015cc8:	00000001 	movf	zero,zero,$fcc0
80015ccc:	00000000 	nop
80015cd0:	00000011 	mthi	zero
80015cd4:	00000003 	sra	zero,zero,0x0
	...
80015ce0:	00000f50 	0xf50
80015ce4:	0000005f 	0x5f
	...
80015cf0:	00000001 	movf	zero,zero,$fcc0
80015cf4:	00000000 	nop
80015cf8:	00000001 	movf	zero,zero,$fcc0
80015cfc:	00000002 	srl	zero,zero,0x0
	...
80015d08:	000011b8 	0x11b8
80015d0c:	00000240 	sll	zero,zero,0x9
80015d10:	0000000c 	syscall
80015d14:	00000013 	mtlo	zero
80015d18:	00000004 	sllv	zero,zero,zero
80015d1c:	00000010 	mfhi	zero
80015d20:	00000009 	jalr	zero,zero
80015d24:	00000003 	sra	zero,zero,0x0
	...
80015d30:	000013f8 	0x13f8
80015d34:	000000ba 	0xba
	...
80015d40:	00000001 	movf	zero,zero,$fcc0
	...
80015d5c:	00400094 	0x400094
80015d60:	00000000 	nop
80015d64:	03000001 	movf	zero,t8,$fcc0
80015d68:	00000000 	nop
80015d6c:	004000b0 	tge	v0,zero,0x2
80015d70:	00000000 	nop
80015d74:	03000002 	0x3000002
80015d78:	00000000 	nop
80015d7c:	00400b10 	0x400b10
80015d80:	00000000 	nop
80015d84:	03000003 	0x3000003
80015d88:	00000000 	nop
80015d8c:	10000000 	b	80015d90 <aoutcode+0x1200>
80015d90:	00000000 	nop
80015d94:	03000004 	sllv	zero,zero,t8
80015d98:	00000000 	nop
80015d9c:	10000000 	b	80015da0 <aoutcode+0x1210>
80015da0:	00000000 	nop
80015da4:	03000005 	0x3000005
80015da8:	00000000 	nop
80015dac:	10000000 	b	80015db0 <aoutcode+0x1220>
80015db0:	00000000 	nop
80015db4:	03000006 	srlv	zero,zero,t8
	...
80015dc4:	03000007 	srav	zero,zero,t8
	...
80015dd4:	03000008 	jr	t8
80015dd8:	00000000 	nop
	...
80015de4:	03000009 	jalr	zero,t8
80015de8:	00000000 	nop
	...
80015df4:	0300000a 	movz	zero,t8,zero
	...
80015e04:	0300000b 	movn	zero,t8,zero
	...
80015e14:	0300000c 	syscall	0xc0000
80015e18:	00000001 	movf	zero,zero,$fcc0
	...
80015e24:	0400fff1 	bltz	zero,80015dec <aoutcode+0x125c>
80015e28:	00000006 	srlv	zero,zero,zero
	...
80015e34:	0400fff1 	bltz	zero,80015dfc <aoutcode+0x126c>
80015e38:	00000010 	mfhi	zero
	...
80015e44:	0400fff1 	bltz	zero,80015e0c <aoutcode+0x127c>
80015e48:	00000018 	mult	zero,zero
80015e4c:	00400b20 	0x400b20
80015e50:	00000019 	multu	zero,zero
80015e54:	01000003 	0x1000003
80015e58:	00000024 	and	zero,zero,zero
	...
80015e64:	0400fff1 	bltz	zero,80015e2c <aoutcode+0x129c>
80015e68:	0000002d 	0x2d
80015e6c:	004009d0 	0x4009d0
80015e70:	00000094 	0x94
80015e74:	02000002 	0x2000002
80015e78:	00000036 	tne	zero,zero
80015e7c:	00400150 	0x400150
80015e80:	0000056c 	0x56c
80015e84:	12000002 	beqz	s0,80015e90 <aoutcode+0x1300>
80015e88:	0000003f 	0x3f
80015e8c:	00400aa0 	0x400aa0
80015e90:	00000064 	0x64
80015e94:	12000002 	beqz	s0,80015ea0 <aoutcode+0x1310>
80015e98:	00000046 	0x46
80015e9c:	00400108 	0x400108
80015ea0:	0000003c 	0x3c
80015ea4:	12000002 	beqz	s0,80015eb0 <aoutcode+0x1320>
80015ea8:	0000004f 	0x4f
80015eac:	00400a64 	0x400a64
80015eb0:	0000003c 	0x3c
80015eb4:	12000002 	beqz	s0,80015ec0 <aoutcode+0x1330>
80015eb8:	00000056 	0x56
80015ebc:	10000000 	b	80015ec0 <aoutcode+0x1330>
80015ec0:	00000000 	nop
80015ec4:	10000004 	b	80015ed8 <aoutcode+0x1348>
80015ec8:	0000005d 	0x5d
80015ecc:	10007ff0 	b	80035e90 <pages+0x1e8bc>
80015ed0:	00000000 	nop
80015ed4:	1000fff1 	b	80015e9c <aoutcode+0x130c>
80015ed8:	00000061 	0x61
80015edc:	00400844 	0x400844
80015ee0:	00000180 	sll	zero,zero,0x6
80015ee4:	12000002 	beqz	s0,80015ef0 <aoutcode+0x1360>
80015ee8:	0000006a 	0x6a
80015eec:	004000e0 	0x4000e0
80015ef0:	00000014 	0x14
80015ef4:	12000002 	beqz	s0,80015f00 <aoutcode+0x1370>
80015ef8:	00000075 	0x75
80015efc:	004000b0 	tge	v0,zero,0x2
80015f00:	00000000 	nop
80015f04:	10000002 	b	80015f10 <aoutcode+0x1380>
80015f08:	0000007c 	0x7c
80015f0c:	0040073c 	0x40073c
80015f10:	00000108 	0x108
80015f14:	12000002 	beqz	s0,80015f20 <aoutcode+0x1390>
80015f18:	00000088 	0x88
80015f1c:	10000000 	b	80015f20 <aoutcode+0x1390>
80015f20:	00000000 	nop
80015f24:	1000fff1 	b	80015eec <aoutcode+0x135c>
80015f28:	00000094 	0x94
80015f2c:	004000b0 	tge	v0,zero,0x2
80015f30:	00000024 	and	zero,zero,zero
80015f34:	12000002 	beqz	s0,80015f40 <aoutcode+0x13b0>
80015f38:	00000099 	0x99
80015f3c:	004006bc 	0x4006bc
80015f40:	00000080 	sll	zero,zero,0x2
80015f44:	12000002 	beqz	s0,80015f50 <aoutcode+0x13c0>
80015f48:	000000a3 	0xa3
80015f4c:	10000000 	b	80015f50 <aoutcode+0x13c0>
80015f50:	00000000 	nop
80015f54:	1000fff1 	b	80015f1c <aoutcode+0x138c>
80015f58:	000000aa 	0xaa
80015f5c:	10000000 	b	80015f60 <aoutcode+0x13d0>
80015f60:	00000000 	nop
80015f64:	1000fff1 	b	80015f2c <aoutcode+0x139c>
80015f68:	000000af 	0xaf
80015f6c:	004000f4 	teq	v0,zero,0x3
80015f70:	00000014 	0x14
80015f74:	12000002 	beqz	s0,80015f80 <aoutcode+0x13f0>
80015f78:	000000b4 	teq	zero,zero,0x2
80015f7c:	10000000 	b	80015f80 <aoutcode+0x13f0>
80015f80:	00000000 	nop
80015f84:	1000fff1 	b	80015f4c <aoutcode+0x13bc>
80015f88:	00696e2e 	0x696e2e
80015f8c:	6300636f 	0x6300636f
80015f90:	6e736f6c 	0x6e736f6c
80015f94:	652e6300 	0x652e6300
80015f98:	7072696e 	0x7072696e
80015f9c:	742e6300 	jalx	80b98c00 <KVPT+0x798c00>
80015fa0:	74686546 	jalx	81a19518 <KVPT+0x1619518>
80015fa4:	6174616c 	0x6174616c
80015fa8:	4d736700 	0x4d736700
80015fac:	7072696e 	0x7072696e
80015fb0:	74662e63 	jalx	8198b98c <KVPT+0x158b98c>
80015fb4:	006d796f 	0x6d796f
80015fb8:	75747075 	jalx	85d1c1d4 <KVPT+0x591c1d4>
80015fbc:	74006c70 	jalx	8001b1c0 <pages+0x3bec>
80015fc0:	5f507269 	0x5f507269
80015fc4:	6e74005f 	0x6e74005f
80015fc8:	70616e69 	0x70616e69
80015fcc:	63007072 	0x63007072
80015fd0:	696e7473 	0x696e7473
80015fd4:	74720070 	jalx	81c801c0 <KVPT+0x18801c0>
80015fd8:	72696e74 	0x72696e74
80015fdc:	66005f66 	0x66005f66
80015fe0:	64617461 	0x64617461
80015fe4:	005f6770 	tge	v0,ra,0x19d
80015fe8:	00507269 	0x507269
80015fec:	6e744e75 	0x6e744e75
80015ff0:	6d007072 	0x6d007072
80015ff4:	696e7463 	0x696e7463
80015ff8:	68617263 	0x68617263
80015ffc:	005f6674 	teq	v0,ra,0x199
80016000:	65787400 	0x65787400
80016004:	5072696e 	beql	v1,s2,800305c0 <pages+0x18fec>
80016008:	74537472 	jalx	814dd1c8 <KVPT+0x10dd1c8>
8001600c:	696e6700 	0x696e6700
80016010:	5f5f6273 	0x5f5f6273
80016014:	735f7374 	0x735f7374
80016018:	61727400 	0x61727400
8001601c:	6d61696e 	0x6d61696e
80016020:	00507269 	0x507269
80016024:	6e744368 	0x6e744368
80016028:	6172005f 	0x6172005f
8001602c:	65646174 	0x65646174
80016030:	61005f65 	0x61005f65
80016034:	6e640068 	0x6e640068
80016038:	616c7400 	0x616c7400
8001603c:	5f666273 	0x5f666273
80016040:	73000000 	madd	t8,zero

80016044 <boutcode>:
80016044:	7f454c46 	0x7f454c46
80016048:	01020100 	0x1020100
	...
80016054:	00020008 	0x20008
80016058:	00000001 	movf	zero,zero,$fcc0
8001605c:	004000b0 	tge	v0,zero,0x2
80016060:	00000034 	teq	zero,zero
80016064:	00000fb0 	tge	zero,zero,0x3e
80016068:	50001001 	beqzl	zero,8001a070 <pages+0x2a9c>
8001606c:	00340020 	add	zero,at,s4
80016070:	00030028 	0x30028
80016074:	000d000a 	movz	zero,zero,t5
80016078:	70000000 	madd	zero,zero
8001607c:	00000094 	0x94
80016080:	00400094 	0x400094
80016084:	00400094 	0x400094
80016088:	00000018 	mult	zero,zero
8001608c:	00000018 	mult	zero,zero
80016090:	00000004 	sllv	zero,zero,zero
80016094:	00000004 	sllv	zero,zero,zero
80016098:	00000001 	movf	zero,zero,$fcc0
8001609c:	00000094 	0x94
800160a0:	00400094 	0x400094
800160a4:	00400094 	0x400094
800160a8:	00000cb2 	tlt	zero,zero,0x32
800160ac:	00000cb2 	tlt	zero,zero,0x32
800160b0:	00000005 	0x5
800160b4:	00000010 	mfhi	zero
800160b8:	00000001 	movf	zero,zero,$fcc0
800160bc:	00000d50 	0xd50
800160c0:	10000000 	b	800160c4 <boutcode+0x80>
800160c4:	10000000 	b	800160c8 <boutcode+0x84>
800160c8:	00000000 	nop
800160cc:	00000000 	nop
800160d0:	00000006 	srlv	zero,zero,zero
800160d4:	00000010 	mfhi	zero
800160d8:	a0010030 	sb	at,48(zero)
	...
800160ec:	10007ff0 	b	800360b0 <pages+0x1eadc>
800160f0:	00000000 	nop
800160f4:	27bdffe8 	addiu	sp,sp,-24
800160f8:	afbf0014 	sw	ra,20(sp)
800160fc:	afb00010 	sw	s0,16(sp)
80016100:	3c100040 	lui	s0,0x40
80016104:	26040b10 	addiu	a0,s0,2832
80016108:	0c100299 	jal	80400a64 <KVPT+0xa64>
8001610c:	24050002 	li	a1,2
80016110:	1000fffd 	b	80016108 <boutcode+0xc4>
80016114:	26040b10 	addiu	a0,s0,2832
	...
80016124:	308400ff 	andi	a0,a0,0xff
80016128:	3c029000 	lui	v0,0x9000
8001612c:	a0440000 	sb	a0,0(v0)
80016130:	03e00008 	jr	ra
80016134:	00000000 	nop
80016138:	3c029000 	lui	v0,0x9000
8001613c:	34420010 	ori	v0,v0,0x10
80016140:	a0400000 	sb	zero,0(v0)
80016144:	03e00008 	jr	ra
80016148:	00000000 	nop
8001614c:	27bdffe8 	addiu	sp,sp,-24
80016150:	afbf0014 	sw	ra,20(sp)
80016154:	afb00010 	sw	s0,16(sp)
80016158:	00808021 	move	s0,a0
8001615c:	80840000 	lb	a0,0(a0)
80016160:	10800006 	beqz	a0,8001617c <boutcode+0x138>
80016164:	8fbf0014 	lw	ra,20(sp)
80016168:	0c100038 	jal	804000e0 <KVPT+0xe0>
8001616c:	26100001 	addiu	s0,s0,1
80016170:	82040000 	lb	a0,0(s0)
80016174:	1480fffc 	bnez	a0,80016168 <boutcode+0x124>
80016178:	8fbf0014 	lw	ra,20(sp)
8001617c:	8fb00010 	lw	s0,16(sp)
80016180:	03e00008 	jr	ra
80016184:	27bd0018 	addiu	sp,sp,24
	...
80016194:	27bdff78 	addiu	sp,sp,-136
80016198:	afbf0084 	sw	ra,132(sp)
8001619c:	afb40080 	sw	s4,128(sp)
800161a0:	afb3007c 	sw	s3,124(sp)
800161a4:	afb20078 	sw	s2,120(sp)
800161a8:	afb10074 	sw	s1,116(sp)
800161ac:	afb00070 	sw	s0,112(sp)
800161b0:	00809821 	move	s3,a0
800161b4:	00a0a021 	move	s4,a1
800161b8:	00c02821 	move	a1,a2
800161bc:	00e09021 	move	s2,a3
800161c0:	80a30000 	lb	v1,0(a1)
800161c4:	1060000c 	beqz	v1,800161f8 <boutcode+0x1b4>
800161c8:	00a08021 	move	s0,a1
800161cc:	10000148 	b	800166f0 <boutcode+0x6ac>
800161d0:	24020025 	li	v0,37
800161d4:	00a08021 	move	s0,a1
800161d8:	26100001 	addiu	s0,s0,1
800161dc:	82020000 	lb	v0,0(s0)
800161e0:	10400006 	beqz	v0,800161fc <boutcode+0x1b8>
800161e4:	02053023 	subu	a2,s0,a1
800161e8:	10430005 	beq	v0,v1,80016200 <boutcode+0x1bc>
800161ec:	2cc20051 	sltiu	v0,a2,81
800161f0:	1000fffa 	b	800161dc <boutcode+0x198>
800161f4:	26100001 	addiu	s0,s0,1
800161f8:	02053023 	subu	a2,s0,a1
800161fc:	2cc20051 	sltiu	v0,a2,81
80016200:	14400007 	bnez	v0,80016220 <boutcode+0x1dc>
80016204:	02802021 	move	a0,s4
80016208:	3c050040 	lui	a1,0x40
8001620c:	24a50b20 	addiu	a1,a1,2848
80016210:	0260f809 	jalr	s3
80016214:	24060018 	li	a2,24
80016218:	1000ffff 	b	80016218 <boutcode+0x1d4>
8001621c:	00000000 	nop
80016220:	0260f809 	jalr	s3
80016224:	02802021 	move	a0,s4
80016228:	82020000 	lb	v0,0(s0)
8001622c:	10400123 	beqz	v0,800166bc <boutcode+0x678>
80016230:	2402006c 	li	v0,108
80016234:	82030001 	lb	v1,1(s0)
80016238:	10620003 	beq	v1,v0,80016248 <boutcode+0x204>
8001623c:	26110001 	addiu	s1,s0,1
80016240:	10000003 	b	80016250 <boutcode+0x20c>
80016244:	00002021 	move	a0,zero
80016248:	26110002 	addiu	s1,s0,2
8001624c:	24040001 	li	a0,1
80016250:	82230000 	lb	v1,0(s1)
80016254:	2402002d 	li	v0,45
80016258:	14620004 	bne	v1,v0,8001626c <boutcode+0x228>
8001625c:	00003821 	move	a3,zero
80016260:	26310001 	addiu	s1,s1,1
80016264:	24070001 	li	a3,1
80016268:	82230000 	lb	v1,0(s1)
8001626c:	24020030 	li	v0,48
80016270:	14620003 	bne	v1,v0,80016280 <boutcode+0x23c>
80016274:	24090020 	li	t1,32
80016278:	26310001 	addiu	s1,s1,1
8001627c:	24090030 	li	t1,48
80016280:	82260000 	lb	a2,0(s1)
80016284:	24c2ffd0 	addiu	v0,a2,-48
80016288:	304200ff 	andi	v0,v0,0xff
8001628c:	2c42000a 	sltiu	v0,v0,10
80016290:	1040000d 	beqz	v0,800162c8 <boutcode+0x284>
80016294:	00004021 	move	t0,zero
80016298:	00081040 	sll	v0,t0,0x1
8001629c:	000818c0 	sll	v1,t0,0x3
800162a0:	00431021 	addu	v0,v0,v1
800162a4:	00461021 	addu	v0,v0,a2
800162a8:	2448ffd0 	addiu	t0,v0,-48
800162ac:	26310001 	addiu	s1,s1,1
800162b0:	82260000 	lb	a2,0(s1)
800162b4:	24c2ffd0 	addiu	v0,a2,-48
800162b8:	304200ff 	andi	v0,v0,0xff
800162bc:	2c42000a 	sltiu	v0,v0,10
800162c0:	1440fff6 	bnez	v0,8001629c <boutcode+0x258>
800162c4:	00081040 	sll	v0,t0,0x1
800162c8:	82230000 	lb	v1,0(s1)
800162cc:	2402002e 	li	v0,46
800162d0:	14620011 	bne	v1,v0,80016318 <boutcode+0x2d4>
800162d4:	2c620079 	sltiu	v0,v1,121
800162d8:	26310001 	addiu	s1,s1,1
800162dc:	92220000 	lbu	v0,0(s1)
800162e0:	2442ffd0 	addiu	v0,v0,-48
800162e4:	304200ff 	andi	v0,v0,0xff
800162e8:	2c42000a 	sltiu	v0,v0,10
800162ec:	10400008 	beqz	v0,80016310 <boutcode+0x2cc>
800162f0:	00000000 	nop
800162f4:	26310001 	addiu	s1,s1,1
800162f8:	92220000 	lbu	v0,0(s1)
800162fc:	2442ffd0 	addiu	v0,v0,-48
80016300:	304200ff 	andi	v0,v0,0xff
80016304:	2c42000a 	sltiu	v0,v0,10
80016308:	1440fffa 	bnez	v0,800162f4 <boutcode+0x2b0>
8001630c:	00000000 	nop
80016310:	82230000 	lb	v1,0(s1)
80016314:	2c620079 	sltiu	v0,v1,121
80016318:	104000e2 	beqz	v0,800166a4 <boutcode+0x660>
8001631c:	00031080 	sll	v0,v1,0x2
80016320:	3c030040 	lui	v1,0x40
80016324:	24630b40 	addiu	v1,v1,2880
80016328:	00431021 	addu	v0,v0,v1
8001632c:	8c420000 	lw	v0,0(v0)
80016330:	00400008 	jr	v0
80016334:	00000000 	nop
80016338:	10800004 	beqz	a0,8001634c <boutcode+0x308>
8001633c:	00000000 	nop
80016340:	8e450000 	lw	a1,0(s2)
80016344:	10000003 	b	80016354 <boutcode+0x310>
80016348:	26520004 	addiu	s2,s2,4
8001634c:	8e450000 	lw	a1,0(s2)
80016350:	26520004 	addiu	s2,s2,4
80016354:	afa80010 	sw	t0,16(sp)
80016358:	afa70014 	sw	a3,20(sp)
8001635c:	afa90018 	sw	t1,24(sp)
80016360:	afa0001c 	sw	zero,28(sp)
80016364:	27a40020 	addiu	a0,sp,32
80016368:	24060002 	li	a2,2
8001636c:	0c100211 	jal	80400844 <KVPT+0x844>
80016370:	00003821 	move	a3,zero
80016374:	00403021 	move	a2,v0
80016378:	2c420051 	sltiu	v0,v0,81
8001637c:	14400007 	bnez	v0,8001639c <boutcode+0x358>
80016380:	02802021 	move	a0,s4
80016384:	3c050040 	lui	a1,0x40
80016388:	24a50b20 	addiu	a1,a1,2848
8001638c:	0260f809 	jalr	s3
80016390:	24060018 	li	a2,24
80016394:	1000ffff 	b	80016394 <boutcode+0x350>
80016398:	00000000 	nop
8001639c:	0260f809 	jalr	s3
800163a0:	27a50020 	addiu	a1,sp,32
800163a4:	1000ff86 	b	800161c0 <boutcode+0x17c>
800163a8:	26250001 	addiu	a1,s1,1
800163ac:	10800004 	beqz	a0,800163c0 <boutcode+0x37c>
800163b0:	00000000 	nop
800163b4:	8e450000 	lw	a1,0(s2)
800163b8:	10000003 	b	800163c8 <boutcode+0x384>
800163bc:	26520004 	addiu	s2,s2,4
800163c0:	8e450000 	lw	a1,0(s2)
800163c4:	26520004 	addiu	s2,s2,4
800163c8:	04a10003 	bgez	a1,800163d8 <boutcode+0x394>
800163cc:	00001021 	move	v0,zero
800163d0:	00052823 	negu	a1,a1
800163d4:	24020001 	li	v0,1
800163d8:	afa80010 	sw	t0,16(sp)
800163dc:	afa70014 	sw	a3,20(sp)
800163e0:	afa90018 	sw	t1,24(sp)
800163e4:	afa0001c 	sw	zero,28(sp)
800163e8:	27a40020 	addiu	a0,sp,32
800163ec:	2406000a 	li	a2,10
800163f0:	0c100211 	jal	80400844 <KVPT+0x844>
800163f4:	00403821 	move	a3,v0
800163f8:	00403021 	move	a2,v0
800163fc:	2c420051 	sltiu	v0,v0,81
80016400:	14400007 	bnez	v0,80016420 <boutcode+0x3dc>
80016404:	02802021 	move	a0,s4
80016408:	3c050040 	lui	a1,0x40
8001640c:	24a50b20 	addiu	a1,a1,2848
80016410:	0260f809 	jalr	s3
80016414:	24060018 	li	a2,24
80016418:	1000ffff 	b	80016418 <boutcode+0x3d4>
8001641c:	00000000 	nop
80016420:	0260f809 	jalr	s3
80016424:	27a50020 	addiu	a1,sp,32
80016428:	1000ff65 	b	800161c0 <boutcode+0x17c>
8001642c:	26250001 	addiu	a1,s1,1
80016430:	10800004 	beqz	a0,80016444 <boutcode+0x400>
80016434:	00000000 	nop
80016438:	8e450000 	lw	a1,0(s2)
8001643c:	10000003 	b	8001644c <boutcode+0x408>
80016440:	26520004 	addiu	s2,s2,4
80016444:	8e450000 	lw	a1,0(s2)
80016448:	26520004 	addiu	s2,s2,4
8001644c:	afa80010 	sw	t0,16(sp)
80016450:	afa70014 	sw	a3,20(sp)
80016454:	afa90018 	sw	t1,24(sp)
80016458:	afa0001c 	sw	zero,28(sp)
8001645c:	27a40020 	addiu	a0,sp,32
80016460:	24060008 	li	a2,8
80016464:	0c100211 	jal	80400844 <KVPT+0x844>
80016468:	00003821 	move	a3,zero
8001646c:	00403021 	move	a2,v0
80016470:	2c420051 	sltiu	v0,v0,81
80016474:	14400007 	bnez	v0,80016494 <boutcode+0x450>
80016478:	02802021 	move	a0,s4
8001647c:	3c050040 	lui	a1,0x40
80016480:	24a50b20 	addiu	a1,a1,2848
80016484:	0260f809 	jalr	s3
80016488:	24060018 	li	a2,24
8001648c:	1000ffff 	b	8001648c <boutcode+0x448>
80016490:	00000000 	nop
80016494:	0260f809 	jalr	s3
80016498:	27a50020 	addiu	a1,sp,32
8001649c:	1000ff48 	b	800161c0 <boutcode+0x17c>
800164a0:	26250001 	addiu	a1,s1,1
800164a4:	10800004 	beqz	a0,800164b8 <boutcode+0x474>
800164a8:	00000000 	nop
800164ac:	8e450000 	lw	a1,0(s2)
800164b0:	10000003 	b	800164c0 <boutcode+0x47c>
800164b4:	26520004 	addiu	s2,s2,4
800164b8:	8e450000 	lw	a1,0(s2)
800164bc:	26520004 	addiu	s2,s2,4
800164c0:	afa80010 	sw	t0,16(sp)
800164c4:	afa70014 	sw	a3,20(sp)
800164c8:	afa90018 	sw	t1,24(sp)
800164cc:	afa0001c 	sw	zero,28(sp)
800164d0:	27a40020 	addiu	a0,sp,32
800164d4:	2406000a 	li	a2,10
800164d8:	0c100211 	jal	80400844 <KVPT+0x844>
800164dc:	00003821 	move	a3,zero
800164e0:	00403021 	move	a2,v0
800164e4:	2c420051 	sltiu	v0,v0,81
800164e8:	14400007 	bnez	v0,80016508 <boutcode+0x4c4>
800164ec:	02802021 	move	a0,s4
800164f0:	3c050040 	lui	a1,0x40
800164f4:	24a50b20 	addiu	a1,a1,2848
800164f8:	0260f809 	jalr	s3
800164fc:	24060018 	li	a2,24
80016500:	1000ffff 	b	80016500 <boutcode+0x4bc>
80016504:	00000000 	nop
80016508:	0260f809 	jalr	s3
8001650c:	27a50020 	addiu	a1,sp,32
80016510:	1000ff2b 	b	800161c0 <boutcode+0x17c>
80016514:	26250001 	addiu	a1,s1,1
80016518:	10800004 	beqz	a0,8001652c <boutcode+0x4e8>
8001651c:	00000000 	nop
80016520:	8e450000 	lw	a1,0(s2)
80016524:	10000003 	b	80016534 <boutcode+0x4f0>
80016528:	26520004 	addiu	s2,s2,4
8001652c:	8e450000 	lw	a1,0(s2)
80016530:	26520004 	addiu	s2,s2,4
80016534:	afa80010 	sw	t0,16(sp)
80016538:	afa70014 	sw	a3,20(sp)
8001653c:	afa90018 	sw	t1,24(sp)
80016540:	afa0001c 	sw	zero,28(sp)
80016544:	27a40020 	addiu	a0,sp,32
80016548:	24060010 	li	a2,16
8001654c:	0c100211 	jal	80400844 <KVPT+0x844>
80016550:	00003821 	move	a3,zero
80016554:	00403021 	move	a2,v0
80016558:	2c420051 	sltiu	v0,v0,81
8001655c:	14400007 	bnez	v0,8001657c <boutcode+0x538>
80016560:	02802021 	move	a0,s4
80016564:	3c050040 	lui	a1,0x40
80016568:	24a50b20 	addiu	a1,a1,2848
8001656c:	0260f809 	jalr	s3
80016570:	24060018 	li	a2,24
80016574:	1000ffff 	b	80016574 <boutcode+0x530>
80016578:	00000000 	nop
8001657c:	0260f809 	jalr	s3
80016580:	27a50020 	addiu	a1,sp,32
80016584:	1000ff0e 	b	800161c0 <boutcode+0x17c>
80016588:	26250001 	addiu	a1,s1,1
8001658c:	10800004 	beqz	a0,800165a0 <boutcode+0x55c>
80016590:	00000000 	nop
80016594:	8e450000 	lw	a1,0(s2)
80016598:	10000003 	b	800165a8 <boutcode+0x564>
8001659c:	26520004 	addiu	s2,s2,4
800165a0:	8e450000 	lw	a1,0(s2)
800165a4:	26520004 	addiu	s2,s2,4
800165a8:	afa80010 	sw	t0,16(sp)
800165ac:	afa70014 	sw	a3,20(sp)
800165b0:	afa90018 	sw	t1,24(sp)
800165b4:	24020001 	li	v0,1
800165b8:	afa2001c 	sw	v0,28(sp)
800165bc:	27a40020 	addiu	a0,sp,32
800165c0:	24060010 	li	a2,16
800165c4:	0c100211 	jal	80400844 <KVPT+0x844>
800165c8:	00003821 	move	a3,zero
800165cc:	00403021 	move	a2,v0
800165d0:	2c420051 	sltiu	v0,v0,81
800165d4:	14400007 	bnez	v0,800165f4 <boutcode+0x5b0>
800165d8:	02802021 	move	a0,s4
800165dc:	3c050040 	lui	a1,0x40
800165e0:	24a50b20 	addiu	a1,a1,2848
800165e4:	0260f809 	jalr	s3
800165e8:	24060018 	li	a2,24
800165ec:	1000ffff 	b	800165ec <boutcode+0x5a8>
800165f0:	00000000 	nop
800165f4:	0260f809 	jalr	s3
800165f8:	27a50020 	addiu	a1,sp,32
800165fc:	1000fef0 	b	800161c0 <boutcode+0x17c>
80016600:	26250001 	addiu	a1,s1,1
80016604:	26500004 	addiu	s0,s2,4
80016608:	27a40020 	addiu	a0,sp,32
8001660c:	82450003 	lb	a1,3(s2)
80016610:	0c1001af 	jal	804006bc <KVPT+0x6bc>
80016614:	01003021 	move	a2,t0
80016618:	00403021 	move	a2,v0
8001661c:	2c420051 	sltiu	v0,v0,81
80016620:	14400007 	bnez	v0,80016640 <boutcode+0x5fc>
80016624:	02802021 	move	a0,s4
80016628:	3c050040 	lui	a1,0x40
8001662c:	24a50b20 	addiu	a1,a1,2848
80016630:	0260f809 	jalr	s3
80016634:	24060018 	li	a2,24
80016638:	1000ffff 	b	80016638 <boutcode+0x5f4>
8001663c:	00000000 	nop
80016640:	0260f809 	jalr	s3
80016644:	27a50020 	addiu	a1,sp,32
80016648:	1000001a 	b	800166b4 <boutcode+0x670>
8001664c:	02009021 	move	s2,s0
80016650:	26500004 	addiu	s0,s2,4
80016654:	27a40020 	addiu	a0,sp,32
80016658:	8e450000 	lw	a1,0(s2)
8001665c:	0c1001cf 	jal	8040073c <KVPT+0x73c>
80016660:	01003021 	move	a2,t0
80016664:	00403021 	move	a2,v0
80016668:	2c420051 	sltiu	v0,v0,81
8001666c:	14400007 	bnez	v0,8001668c <boutcode+0x648>
80016670:	02802021 	move	a0,s4
80016674:	3c050040 	lui	a1,0x40
80016678:	24a50b20 	addiu	a1,a1,2848
8001667c:	0260f809 	jalr	s3
80016680:	24060018 	li	a2,24
80016684:	1000ffff 	b	80016684 <boutcode+0x640>
80016688:	00000000 	nop
8001668c:	0260f809 	jalr	s3
80016690:	27a50020 	addiu	a1,sp,32
80016694:	10000007 	b	800166b4 <boutcode+0x670>
80016698:	02009021 	move	s2,s0
8001669c:	10000005 	b	800166b4 <boutcode+0x670>
800166a0:	2631ffff 	addiu	s1,s1,-1
800166a4:	02802021 	move	a0,s4
800166a8:	02202821 	move	a1,s1
800166ac:	0260f809 	jalr	s3
800166b0:	24060001 	li	a2,1
800166b4:	1000fec2 	b	800161c0 <boutcode+0x17c>
800166b8:	26250001 	addiu	a1,s1,1
800166bc:	02802021 	move	a0,s4
800166c0:	3c050040 	lui	a1,0x40
800166c4:	24a50b3c 	addiu	a1,a1,2876
800166c8:	0260f809 	jalr	s3
800166cc:	24060001 	li	a2,1
800166d0:	8fbf0084 	lw	ra,132(sp)
800166d4:	8fb40080 	lw	s4,128(sp)
800166d8:	8fb3007c 	lw	s3,124(sp)
800166dc:	8fb20078 	lw	s2,120(sp)
800166e0:	8fb10074 	lw	s1,116(sp)
800166e4:	8fb00070 	lw	s0,112(sp)
800166e8:	03e00008 	jr	ra
800166ec:	27bd0088 	addiu	sp,sp,136
800166f0:	1462feb8 	bne	v1,v0,800161d4 <boutcode+0x190>
800166f4:	24030025 	li	v1,37
800166f8:	1000febf 	b	800161f8 <boutcode+0x1b4>
800166fc:	00a08021 	move	s0,a1
80016700:	00052e00 	sll	a1,a1,0x18
80016704:	00052e03 	sra	a1,a1,0x18
80016708:	0006182a 	slt	v1,zero,a2
8001670c:	24020001 	li	v0,1
80016710:	10e00015 	beqz	a3,80016768 <boutcode+0x724>
80016714:	0043300a 	movz	a2,v0,v1
80016718:	28c20002 	slti	v0,a2,2
8001671c:	14400016 	bnez	v0,80016778 <boutcode+0x734>
80016720:	a0850000 	sb	a1,0(a0)
80016724:	24030001 	li	v1,1
80016728:	24050020 	li	a1,32
8001672c:	00831021 	addu	v0,a0,v1
80016730:	24630001 	addiu	v1,v1,1
80016734:	10c30010 	beq	a2,v1,80016778 <boutcode+0x734>
80016738:	a0450000 	sb	a1,0(v0)
8001673c:	1000fffc 	b	80016730 <boutcode+0x6ec>
80016740:	00831021 	addu	v0,a0,v1
80016744:	00001821 	move	v1,zero
80016748:	24080020 	li	t0,32
8001674c:	00641021 	addu	v0,v1,a0
80016750:	24630001 	addiu	v1,v1,1
80016754:	1467fffd 	bne	v1,a3,8001674c <boutcode+0x708>
80016758:	a0480000 	sb	t0,0(v0)
8001675c:	00c41021 	addu	v0,a2,a0
80016760:	10000005 	b	80016778 <boutcode+0x734>
80016764:	a045ffff 	sb	a1,-1(v0)
80016768:	24c7ffff 	addiu	a3,a2,-1
8001676c:	1ce0fff5 	bgtz	a3,80016744 <boutcode+0x700>
80016770:	00c41021 	addu	v0,a2,a0
80016774:	a045ffff 	sb	a1,-1(v0)
80016778:	03e00008 	jr	ra
8001677c:	00c01021 	move	v0,a2
80016780:	80a20000 	lb	v0,0(a1)
80016784:	14400003 	bnez	v0,80016794 <boutcode+0x750>
80016788:	24a30001 	addiu	v1,a1,1
8001678c:	10000006 	b	800167a8 <boutcode+0x764>
80016790:	00004021 	move	t0,zero
80016794:	00004021 	move	t0,zero
80016798:	25080001 	addiu	t0,t0,1
8001679c:	80620000 	lb	v0,0(v1)
800167a0:	1440fffd 	bnez	v0,80016798 <boutcode+0x754>
800167a4:	24630001 	addiu	v1,v1,1
800167a8:	00c8102a 	slt	v0,a2,t0
800167ac:	14e00030 	bnez	a3,80016870 <boutcode+0x82c>
800167b0:	0102300b 	movn	a2,t0,v0
800167b4:	1000002a 	b	80016860 <boutcode+0x81c>
800167b8:	00c83823 	subu	a3,a2,t0
800167bc:	00003821 	move	a3,zero
800167c0:	00871021 	addu	v0,a0,a3
800167c4:	00a71821 	addu	v1,a1,a3
800167c8:	90630000 	lbu	v1,0(v1)
800167cc:	24e70001 	addiu	a3,a3,1
800167d0:	1507fffb 	bne	t0,a3,800167c0 <boutcode+0x77c>
800167d4:	a0430000 	sb	v1,0(v0)
800167d8:	0106102a 	slt	v0,t0,a2
800167dc:	10400028 	beqz	v0,80016880 <boutcode+0x83c>
800167e0:	00001821 	move	v1,zero
800167e4:	00881021 	addu	v0,a0,t0
800167e8:	24050020 	li	a1,32
800167ec:	00c82023 	subu	a0,a2,t0
800167f0:	a0450000 	sb	a1,0(v0)
800167f4:	24630001 	addiu	v1,v1,1
800167f8:	10640021 	beq	v1,a0,80016880 <boutcode+0x83c>
800167fc:	24420001 	addiu	v0,v0,1
80016800:	1000fffc 	b	800167f4 <boutcode+0x7b0>
80016804:	a0450000 	sb	a1,0(v0)
80016808:	00001821 	move	v1,zero
8001680c:	24090020 	li	t1,32
80016810:	00831021 	addu	v0,a0,v1
80016814:	24630001 	addiu	v1,v1,1
80016818:	1467fffd 	bne	v1,a3,80016810 <boutcode+0x7cc>
8001681c:	a0490000 	sb	t1,0(v0)
80016820:	00e6102a 	slt	v0,a3,a2
80016824:	10400016 	beqz	v0,80016880 <boutcode+0x83c>
80016828:	00872021 	addu	a0,a0,a3
8001682c:	00e61023 	subu	v0,a3,a2
80016830:	01021021 	addu	v0,t0,v0
80016834:	00a21821 	addu	v1,a1,v0
80016838:	00002821 	move	a1,zero
8001683c:	00c73823 	subu	a3,a2,a3
80016840:	90620000 	lbu	v0,0(v1)
80016844:	a0820000 	sb	v0,0(a0)
80016848:	24a50001 	addiu	a1,a1,1
8001684c:	24630001 	addiu	v1,v1,1
80016850:	10a7000b 	beq	a1,a3,80016880 <boutcode+0x83c>
80016854:	24840001 	addiu	a0,a0,1
80016858:	1000fffa 	b	80016844 <boutcode+0x800>
8001685c:	90620000 	lbu	v0,0(v1)
80016860:	1ce0ffe9 	bgtz	a3,80016808 <boutcode+0x7c4>
80016864:	00e6102a 	slt	v0,a3,a2
80016868:	1000ffee 	b	80016824 <boutcode+0x7e0>
8001686c:	00000000 	nop
80016870:	1d00ffd2 	bgtz	t0,800167bc <boutcode+0x778>
80016874:	0106102a 	slt	v0,t0,a2
80016878:	1000ffd8 	b	800167dc <boutcode+0x798>
8001687c:	00000000 	nop
80016880:	03e00008 	jr	ra
80016884:	00c01021 	move	v0,a2
80016888:	8fa90010 	lw	t1,16(sp)
8001688c:	8fac0014 	lw	t4,20(sp)
80016890:	8fab001c 	lw	t3,28(sp)
80016894:	83aa001b 	lb	t2,27(sp)
80016898:	00804021 	move	t0,a0
8001689c:	00a6001b 	divu	zero,a1,a2
800168a0:	00c001f4 	teq	a2,zero,0x7
800168a4:	00001810 	mfhi	v1
800168a8:	2862000a 	slti	v0,v1,10
800168ac:	10400004 	beqz	v0,800168c0 <boutcode+0x87c>
800168b0:	24620030 	addiu	v0,v1,48
800168b4:	a1020000 	sb	v0,0(t0)
800168b8:	1000000b 	b	800168e8 <boutcode+0x8a4>
800168bc:	25080001 	addiu	t0,t0,1
800168c0:	11600005 	beqz	t3,800168d8 <boutcode+0x894>
800168c4:	24620057 	addiu	v0,v1,87
800168c8:	24620037 	addiu	v0,v1,55
800168cc:	a1020000 	sb	v0,0(t0)
800168d0:	10000003 	b	800168e0 <boutcode+0x89c>
800168d4:	25080001 	addiu	t0,t0,1
800168d8:	a1020000 	sb	v0,0(t0)
800168dc:	25080001 	addiu	t0,t0,1
800168e0:	00a6001b 	divu	zero,a1,a2
800168e4:	00c001f4 	teq	a2,zero,0x7
800168e8:	00002812 	mflo	a1
800168ec:	14a0ffeb 	bnez	a1,8001689c <boutcode+0x858>
800168f0:	00000000 	nop
800168f4:	10e00005 	beqz	a3,8001690c <boutcode+0x8c8>
800168f8:	01043023 	subu	a2,t0,a0
800168fc:	2402002d 	li	v0,45
80016900:	a1020000 	sb	v0,0(t0)
80016904:	25080001 	addiu	t0,t0,1
80016908:	01043023 	subu	a2,t0,a0
8001690c:	0126102a 	slt	v0,t1,a2
80016910:	00c2480b 	movn	t1,a2,v0
80016914:	24020020 	li	v0,32
80016918:	10e00032 	beqz	a3,800169e4 <boutcode+0x9a0>
8001691c:	004c500b 	movn	t2,v0,t4
80016920:	15800031 	bnez	t4,800169e8 <boutcode+0x9a4>
80016924:	00c9102a 	slt	v0,a2,t1
80016928:	24020030 	li	v0,48
8001692c:	1542002e 	bne	t2,v0,800169e8 <boutcode+0x9a4>
80016930:	00c9102a 	slt	v0,a2,t1
80016934:	24c6ffff 	addiu	a2,a2,-1
80016938:	2528ffff 	addiu	t0,t1,-1
8001693c:	00c8102a 	slt	v0,a2,t0
80016940:	10400008 	beqz	v0,80016964 <boutcode+0x920>
80016944:	01061023 	subu	v0,t0,a2
80016948:	00861821 	addu	v1,a0,a2
8001694c:	00002821 	move	a1,zero
80016950:	24070030 	li	a3,48
80016954:	a0670000 	sb	a3,0(v1)
80016958:	24a50001 	addiu	a1,a1,1
8001695c:	14a2fffd 	bne	a1,v0,80016954 <boutcode+0x910>
80016960:	24630001 	addiu	v1,v1,1
80016964:	00891821 	addu	v1,a0,t1
80016968:	2402002d 	li	v0,45
8001696c:	1000000d 	b	800169a4 <boutcode+0x960>
80016970:	a062ffff 	sb	v0,-1(v1)
80016974:	a0aa0000 	sb	t2,0(a1)
80016978:	24630001 	addiu	v1,v1,1
8001697c:	01261023 	subu	v0,t1,a2
80016980:	1462fffc 	bne	v1,v0,80016974 <boutcode+0x930>
80016984:	24a50001 	addiu	a1,a1,1
80016988:	11800006 	beqz	t4,800169a4 <boutcode+0x960>
8001698c:	00000000 	nop
80016990:	24c6ffff 	addiu	a2,a2,-1
80016994:	1cc00005 	bgtz	a2,800169ac <boutcode+0x968>
80016998:	00003821 	move	a3,zero
8001699c:	03e00008 	jr	ra
800169a0:	01201021 	move	v0,t1
800169a4:	1000fffb 	b	80016994 <boutcode+0x950>
800169a8:	2526ffff 	addiu	a2,t1,-1
800169ac:	00802821 	move	a1,a0
800169b0:	00862021 	addu	a0,a0,a2
800169b4:	80a20000 	lb	v0,0(a1)
800169b8:	90830000 	lbu	v1,0(a0)
800169bc:	a0a30000 	sb	v1,0(a1)
800169c0:	a0820000 	sb	v0,0(a0)
800169c4:	24e70001 	addiu	a3,a3,1
800169c8:	24c6ffff 	addiu	a2,a2,-1
800169cc:	24a50001 	addiu	a1,a1,1
800169d0:	00e6102a 	slt	v0,a3,a2
800169d4:	10400009 	beqz	v0,800169fc <boutcode+0x9b8>
800169d8:	2484ffff 	addiu	a0,a0,-1
800169dc:	1000fff6 	b	800169b8 <boutcode+0x974>
800169e0:	80a20000 	lb	v0,0(a1)
800169e4:	00c9102a 	slt	v0,a2,t1
800169e8:	1040ffe7 	beqz	v0,80016988 <boutcode+0x944>
800169ec:	00000000 	nop
800169f0:	00862821 	addu	a1,a0,a2
800169f4:	1000ffdf 	b	80016974 <boutcode+0x930>
800169f8:	00001821 	move	v1,zero
800169fc:	01201021 	move	v0,t1
80016a00:	03e00008 	jr	ra
80016a04:	00000000 	nop
	...
80016a14:	27bdffe0 	addiu	sp,sp,-32
80016a18:	afbf001c 	sw	ra,28(sp)
80016a1c:	afb20018 	sw	s2,24(sp)
80016a20:	afb10014 	sw	s1,20(sp)
80016a24:	afb00010 	sw	s0,16(sp)
80016a28:	24020001 	li	v0,1
80016a2c:	14c20013 	bne	a2,v0,80016a7c <boutcode+0xa38>
80016a30:	00c09021 	move	s2,a2
80016a34:	80a20000 	lb	v0,0(a1)
80016a38:	14400013 	bnez	v0,80016a88 <boutcode+0xa44>
80016a3c:	00a08021 	move	s0,a1
80016a40:	10000014 	b	80016a94 <boutcode+0xa50>
80016a44:	8fbf001c 	lw	ra,28(sp)
80016a48:	0c100038 	jal	804000e0 <KVPT+0xe0>
80016a4c:	82040000 	lb	a0,0(s0)
80016a50:	82030000 	lb	v1,0(s0)
80016a54:	2402000a 	li	v0,10
80016a58:	14620003 	bne	v1,v0,80016a68 <boutcode+0xa24>
80016a5c:	00000000 	nop
80016a60:	0c100038 	jal	804000e0 <KVPT+0xe0>
80016a64:	2404000a 	li	a0,10
80016a68:	26310001 	addiu	s1,s1,1
80016a6c:	12510008 	beq	s2,s1,80016a90 <boutcode+0xa4c>
80016a70:	26100001 	addiu	s0,s0,1
80016a74:	1000fff4 	b	80016a48 <boutcode+0xa04>
80016a78:	00000000 	nop
80016a7c:	18c00005 	blez	a2,80016a94 <boutcode+0xa50>
80016a80:	8fbf001c 	lw	ra,28(sp)
80016a84:	00a08021 	move	s0,a1
80016a88:	1000ffef 	b	80016a48 <boutcode+0xa04>
80016a8c:	00008821 	move	s1,zero
80016a90:	8fbf001c 	lw	ra,28(sp)
80016a94:	8fb20018 	lw	s2,24(sp)
80016a98:	8fb10014 	lw	s1,20(sp)
80016a9c:	8fb00010 	lw	s0,16(sp)
80016aa0:	03e00008 	jr	ra
80016aa4:	27bd0020 	addiu	sp,sp,32
80016aa8:	27bdffe0 	addiu	sp,sp,-32
80016aac:	afbf0018 	sw	ra,24(sp)
80016ab0:	afa50024 	sw	a1,36(sp)
80016ab4:	afa60028 	sw	a2,40(sp)
80016ab8:	afa7002c 	sw	a3,44(sp)
80016abc:	00803021 	move	a2,a0
80016ac0:	27a70024 	addiu	a3,sp,36
80016ac4:	afa70010 	sw	a3,16(sp)
80016ac8:	3c040040 	lui	a0,0x40
80016acc:	248409d0 	addiu	a0,a0,2512
80016ad0:	0c100054 	jal	80400150 <KVPT+0x150>
80016ad4:	00002821 	move	a1,zero
80016ad8:	8fbf0018 	lw	ra,24(sp)
80016adc:	03e00008 	jr	ra
80016ae0:	27bd0020 	addiu	sp,sp,32
80016ae4:	27bdffe0 	addiu	sp,sp,-32
80016ae8:	afbf001c 	sw	ra,28(sp)
80016aec:	afb00018 	sw	s0,24(sp)
80016af0:	00801821 	move	v1,a0
80016af4:	00a04021 	move	t0,a1
80016af8:	afa7002c 	sw	a3,44(sp)
80016afc:	00c08021 	move	s0,a2
80016b00:	27a2002c 	addiu	v0,sp,44
80016b04:	afa20010 	sw	v0,16(sp)
80016b08:	3c040040 	lui	a0,0x40
80016b0c:	24840d30 	addiu	a0,a0,3376
80016b10:	00602821 	move	a1,v1
80016b14:	0c100299 	jal	80400a64 <KVPT+0xa64>
80016b18:	01003021 	move	a2,t0
80016b1c:	3c040040 	lui	a0,0x40
80016b20:	248409d0 	addiu	a0,a0,2512
80016b24:	00002821 	move	a1,zero
80016b28:	02003021 	move	a2,s0
80016b2c:	0c100054 	jal	80400150 <KVPT+0x150>
80016b30:	8fa70010 	lw	a3,16(sp)
80016b34:	3c040040 	lui	a0,0x40
80016b38:	0c100299 	jal	80400a64 <KVPT+0xa64>
80016b3c:	24840d44 	addiu	a0,a0,3396
80016b40:	1000ffff 	b	80016b40 <boutcode+0xafc>
80016b44:	00000000 	nop
	...
80016b54:	25642000 	addiu	a0,t3,8192
	...
80016b64:	66617461 	0x66617461
80016b68:	6c206572 	0x6c206572
80016b6c:	726f7220 	0x726f7220
80016b70:	696e206c 	0x696e206c
80016b74:	705f5072 	0x705f5072
80016b78:	696e7421 	0x696e7421
	...
80016b84:	00400658 	0x400658
80016b88:	00400660 	0x400660
80016b8c:	00400660 	0x400660
80016b90:	00400660 	0x400660
80016b94:	00400660 	0x400660
80016b98:	00400660 	0x400660
80016b9c:	00400660 	0x400660
80016ba0:	00400660 	0x400660
80016ba4:	00400660 	0x400660
80016ba8:	00400660 	0x400660
80016bac:	00400660 	0x400660
80016bb0:	00400660 	0x400660
80016bb4:	00400660 	0x400660
80016bb8:	00400660 	0x400660
80016bbc:	00400660 	0x400660
80016bc0:	00400660 	0x400660
80016bc4:	00400660 	0x400660
80016bc8:	00400660 	0x400660
80016bcc:	00400660 	0x400660
80016bd0:	00400660 	0x400660
80016bd4:	00400660 	0x400660
80016bd8:	00400660 	0x400660
80016bdc:	00400660 	0x400660
80016be0:	00400660 	0x400660
80016be4:	00400660 	0x400660
80016be8:	00400660 	0x400660
80016bec:	00400660 	0x400660
80016bf0:	00400660 	0x400660
80016bf4:	00400660 	0x400660
80016bf8:	00400660 	0x400660
80016bfc:	00400660 	0x400660
80016c00:	00400660 	0x400660
80016c04:	00400660 	0x400660
80016c08:	00400660 	0x400660
80016c0c:	00400660 	0x400660
80016c10:	00400660 	0x400660
80016c14:	00400660 	0x400660
80016c18:	00400660 	0x400660
80016c1c:	00400660 	0x400660
80016c20:	00400660 	0x400660
80016c24:	00400660 	0x400660
80016c28:	00400660 	0x400660
80016c2c:	00400660 	0x400660
80016c30:	00400660 	0x400660
80016c34:	00400660 	0x400660
80016c38:	00400660 	0x400660
80016c3c:	00400660 	0x400660
80016c40:	00400660 	0x400660
80016c44:	00400660 	0x400660
80016c48:	00400660 	0x400660
80016c4c:	00400660 	0x400660
80016c50:	00400660 	0x400660
80016c54:	00400660 	0x400660
80016c58:	00400660 	0x400660
80016c5c:	00400660 	0x400660
80016c60:	00400660 	0x400660
80016c64:	00400660 	0x400660
80016c68:	00400660 	0x400660
80016c6c:	00400660 	0x400660
80016c70:	00400660 	0x400660
80016c74:	00400660 	0x400660
80016c78:	00400660 	0x400660
80016c7c:	00400660 	0x400660
80016c80:	00400660 	0x400660
80016c84:	00400660 	0x400660
80016c88:	00400660 	0x400660
80016c8c:	00400660 	0x400660
80016c90:	00400660 	0x400660
80016c94:	00400368 	0x400368
80016c98:	00400660 	0x400660
80016c9c:	00400660 	0x400660
80016ca0:	00400660 	0x400660
80016ca4:	00400660 	0x400660
80016ca8:	00400660 	0x400660
80016cac:	00400660 	0x400660
80016cb0:	00400660 	0x400660
80016cb4:	00400660 	0x400660
80016cb8:	00400660 	0x400660
80016cbc:	00400660 	0x400660
80016cc0:	004003ec 	0x4003ec
80016cc4:	00400660 	0x400660
80016cc8:	00400660 	0x400660
80016ccc:	00400660 	0x400660
80016cd0:	00400660 	0x400660
80016cd4:	00400660 	0x400660
80016cd8:	00400460 	0x400460
80016cdc:	00400660 	0x400660
80016ce0:	00400660 	0x400660
80016ce4:	00400548 	0x400548
80016ce8:	00400660 	0x400660
80016cec:	00400660 	0x400660
80016cf0:	00400660 	0x400660
80016cf4:	00400660 	0x400660
80016cf8:	00400660 	0x400660
80016cfc:	00400660 	0x400660
80016d00:	00400660 	0x400660
80016d04:	00400660 	0x400660
80016d08:	00400660 	0x400660
80016d0c:	004002f4 	teq	v0,zero,0xb
80016d10:	004005c0 	0x4005c0
80016d14:	00400368 	0x400368
80016d18:	00400660 	0x400660
80016d1c:	00400660 	0x400660
80016d20:	00400660 	0x400660
80016d24:	00400660 	0x400660
80016d28:	00400660 	0x400660
80016d2c:	00400660 	0x400660
80016d30:	00400660 	0x400660
80016d34:	00400660 	0x400660
80016d38:	00400660 	0x400660
80016d3c:	00400660 	0x400660
80016d40:	004003ec 	0x4003ec
80016d44:	00400660 	0x400660
80016d48:	00400660 	0x400660
80016d4c:	00400660 	0x400660
80016d50:	0040060c 	syscall	0x10018
80016d54:	00400660 	0x400660
80016d58:	00400460 	0x400460
80016d5c:	00400660 	0x400660
80016d60:	00400660 	0x400660
80016d64:	004004d4 	0x4004d4
	...
80016d74:	70616e69 	0x70616e69
80016d78:	63206174 	0x63206174
80016d7c:	2025733a 	addi	a1,at,29498
80016d80:	25643a20 	addiu	a0,t3,14880
80016d84:	00000000 	nop
80016d88:	0a000000 	j	88000000 <KVPT+0x7c00000>
80016d8c:	00000000 	nop
80016d90:	00000000 	nop
80016d94:	00474343 	0x474343
80016d98:	3a202847 	xori	zero,s1,0x2847
80016d9c:	4e552920 	c3	0x552920
80016da0:	342e302e 	ori	t6,at,0x302e
80016da4:	30202844 	andi	zero,at,0x2844
80016da8:	454e5820 	0x454e5820
80016dac:	454c444b 	0x454c444b
80016db0:	20342e31 	addi	s4,at,11825
80016db4:	20342e30 	addi	s4,at,11824
80016db8:	2e302900 	sltiu	s0,s1,10496
80016dbc:	00474343 	0x474343
80016dc0:	3a202847 	xori	zero,s1,0x2847
80016dc4:	4e552920 	c3	0x552920
80016dc8:	342e302e 	ori	t6,at,0x302e
80016dcc:	30202844 	andi	zero,at,0x2844
80016dd0:	454e5820 	0x454e5820
80016dd4:	454c444b 	0x454c444b
80016dd8:	20342e31 	addi	s4,at,11825
80016ddc:	20342e30 	addi	s4,at,11824
80016de0:	2e302900 	sltiu	s0,s1,10496
80016de4:	00474343 	0x474343
80016de8:	3a202847 	xori	zero,s1,0x2847
80016dec:	4e552920 	c3	0x552920
80016df0:	342e302e 	ori	t6,at,0x302e
80016df4:	30202844 	andi	zero,at,0x2844
80016df8:	454e5820 	0x454e5820
80016dfc:	454c444b 	0x454c444b
80016e00:	20342e31 	addi	s4,at,11825
80016e04:	20342e30 	addi	s4,at,11824
80016e08:	2e302900 	sltiu	s0,s1,10496
80016e0c:	00474343 	0x474343
80016e10:	3a202847 	xori	zero,s1,0x2847
80016e14:	4e552920 	c3	0x552920
80016e18:	342e302e 	ori	t6,at,0x302e
80016e1c:	30202844 	andi	zero,at,0x2844
80016e20:	454e5820 	0x454e5820
80016e24:	454c444b 	0x454c444b
80016e28:	20342e31 	addi	s4,at,11825
80016e2c:	20342e30 	addi	s4,at,11824
80016e30:	2e302900 	sltiu	s0,s1,10496
80016e34:	004000b0 	tge	v0,zero,0x2
80016e38:	80010000 	lb	at,0(zero)
80016e3c:	fffffffc 	sdc3	$31,-4(ra)
	...
80016e48:	00000018 	mult	zero,zero
80016e4c:	0000001d 	0x1d
80016e50:	0000001f 	0x1f
80016e54:	004000e0 	0x4000e0
	...
80016e6c:	0000001d 	0x1d
80016e70:	0000001f 	0x1f
80016e74:	004000f4 	teq	v0,zero,0x3
	...
80016e8c:	0000001d 	0x1d
80016e90:	0000001f 	0x1f
80016e94:	00400108 	0x400108
80016e98:	80010000 	lb	at,0(zero)
80016e9c:	fffffffc 	sdc3	$31,-4(ra)
	...
80016ea8:	00000018 	mult	zero,zero
80016eac:	0000001d 	0x1d
80016eb0:	0000001f 	0x1f
80016eb4:	00400150 	0x400150
80016eb8:	801f0000 	lb	ra,0(zero)
80016ebc:	fffffffc 	sdc3	$31,-4(ra)
	...
80016ec8:	00000088 	0x88
80016ecc:	0000001d 	0x1d
80016ed0:	0000001f 	0x1f
80016ed4:	004006bc 	0x4006bc
	...
80016eec:	0000001d 	0x1d
80016ef0:	0000001f 	0x1f
80016ef4:	0040073c 	0x40073c
	...
80016f0c:	0000001d 	0x1d
80016f10:	0000001f 	0x1f
80016f14:	00400844 	0x400844
	...
80016f2c:	0000001d 	0x1d
80016f30:	0000001f 	0x1f
80016f34:	004009d0 	0x4009d0
80016f38:	80070000 	lb	a3,0(zero)
80016f3c:	fffffffc 	sdc3	$31,-4(ra)
	...
80016f48:	00000020 	add	zero,zero,zero
80016f4c:	0000001d 	0x1d
80016f50:	0000001f 	0x1f
80016f54:	00400a64 	0x400a64
80016f58:	80000000 	lb	zero,0(zero)
80016f5c:	fffffff8 	sdc3	$31,-8(ra)
	...
80016f68:	00000020 	add	zero,zero,zero
80016f6c:	0000001d 	0x1d
80016f70:	0000001f 	0x1f
80016f74:	00400aa0 	0x400aa0
80016f78:	80010000 	lb	at,0(zero)
80016f7c:	fffffffc 	sdc3	$31,-4(ra)
	...
80016f88:	00000020 	add	zero,zero,zero
80016f8c:	0000001d 	0x1d
80016f90:	0000001f 	0x1f
80016f94:	002e7379 	0x2e7379
80016f98:	6d746162 	0x6d746162
80016f9c:	002e7374 	teq	at,t6,0x1cd
80016fa0:	72746162 	0x72746162
80016fa4:	002e7368 	0x2e7368
80016fa8:	73747274 	0x73747274
80016fac:	6162002e 	0x6162002e
80016fb0:	72656769 	0x72656769
80016fb4:	6e666f00 	0x6e666f00
80016fb8:	2e746578 	sltiu	s4,s3,25976
80016fbc:	74002e72 	jalx	8000b9c8 <except_vec3+0xb948>
80016fc0:	6f646174 	0x6f646174
80016fc4:	61002e64 	0x61002e64
80016fc8:	61746100 	0x61746100
80016fcc:	2e736273 	sltiu	s3,s3,25203
80016fd0:	73002e62 	0x73002e62
80016fd4:	7373002e 	0x7373002e
80016fd8:	636f6d6d 	0x636f6d6d
80016fdc:	656e7400 	0x656e7400
80016fe0:	2e706472 	sltiu	s0,s3,25714
80016fe4:	002e6d64 	0x2e6d64
80016fe8:	65627567 	0x65627567
80016fec:	2e616269 	sltiu	at,s3,25193
80016ff0:	33320000 	andi	s2,t9,0x0
	...
8001701c:	0000001b 	divu	zero,zero,zero
80017020:	70000006 	0x70000006
80017024:	00000002 	srl	zero,zero,0x0
80017028:	00400094 	0x400094
8001702c:	00000094 	0x94
80017030:	00000018 	mult	zero,zero
	...
8001703c:	00000004 	sllv	zero,zero,zero
80017040:	00000018 	mult	zero,zero
80017044:	00000024 	and	zero,zero,zero
80017048:	00000001 	movf	zero,zero,$fcc0
8001704c:	00000006 	srlv	zero,zero,zero
80017050:	004000b0 	tge	v0,zero,0x2
80017054:	000000b0 	tge	zero,zero,0x2
80017058:	00000a60 	0xa60
	...
80017064:	00000010 	mfhi	zero
80017068:	00000000 	nop
8001706c:	0000002a 	slt	zero,zero,zero
80017070:	00000001 	movf	zero,zero,$fcc0
80017074:	00000002 	srl	zero,zero,0x0
80017078:	00400b10 	0x400b10
8001707c:	00000b10 	0xb10
80017080:	00000236 	tne	zero,zero,0x8
	...
8001708c:	00000010 	mfhi	zero
80017090:	00000000 	nop
80017094:	00000032 	tlt	zero,zero
80017098:	00000001 	movf	zero,zero,$fcc0
8001709c:	00000003 	sra	zero,zero,0x0
800170a0:	10000000 	b	800170a4 <boutcode+0x1060>
800170a4:	00000d50 	0xd50
	...
800170b4:	00000010 	mfhi	zero
800170b8:	00000000 	nop
800170bc:	00000038 	0x38
800170c0:	00000008 	jr	zero
800170c4:	10000003 	b	800170d4 <boutcode+0x1090>
800170c8:	10000000 	b	800170cc <boutcode+0x1088>
800170cc:	00000d50 	0xd50
	...
800170dc:	00000001 	movf	zero,zero,$fcc0
800170e0:	00000000 	nop
800170e4:	0000003e 	0x3e
800170e8:	00000008 	jr	zero
800170ec:	00000003 	sra	zero,zero,0x0
800170f0:	10000000 	b	800170f4 <boutcode+0x10b0>
800170f4:	00000d50 	0xd50
	...
80017104:	00000010 	mfhi	zero
80017108:	00000000 	nop
8001710c:	00000043 	sra	zero,zero,0x1
80017110:	00000001 	movf	zero,zero,$fcc0
	...
8001711c:	00000d50 	0xd50
80017120:	000000a0 	0xa0
	...
8001712c:	00000001 	movf	zero,zero,$fcc0
80017130:	00000000 	nop
80017134:	0000004c 	syscall	0x1
80017138:	00000001 	movf	zero,zero,$fcc0
	...
80017144:	00000df0 	tge	zero,zero,0x37
80017148:	00000160 	0x160
	...
80017154:	00000004 	sllv	zero,zero,zero
80017158:	00000000 	nop
8001715c:	00000051 	0x51
80017160:	00000001 	movf	zero,zero,$fcc0
	...
8001716c:	00000f50 	0xf50
	...
8001717c:	00000001 	movf	zero,zero,$fcc0
80017180:	00000000 	nop
80017184:	00000011 	mthi	zero
80017188:	00000003 	sra	zero,zero,0x0
	...
80017194:	00000f50 	0xf50
80017198:	0000005f 	0x5f
	...
800171a4:	00000001 	movf	zero,zero,$fcc0
800171a8:	00000000 	nop
800171ac:	00000001 	movf	zero,zero,$fcc0
800171b0:	00000002 	srl	zero,zero,0x0
	...
800171bc:	000011b8 	0x11b8
800171c0:	00000240 	sll	zero,zero,0x9
800171c4:	0000000c 	syscall
800171c8:	00000013 	mtlo	zero
800171cc:	00000004 	sllv	zero,zero,zero
800171d0:	00000010 	mfhi	zero
800171d4:	00000009 	jalr	zero,zero
800171d8:	00000003 	sra	zero,zero,0x0
	...
800171e4:	000013f8 	0x13f8
800171e8:	000000ba 	0xba
	...
800171f4:	00000001 	movf	zero,zero,$fcc0
	...
80017210:	00400094 	0x400094
80017214:	00000000 	nop
80017218:	03000001 	movf	zero,t8,$fcc0
8001721c:	00000000 	nop
80017220:	004000b0 	tge	v0,zero,0x2
80017224:	00000000 	nop
80017228:	03000002 	0x3000002
8001722c:	00000000 	nop
80017230:	00400b10 	0x400b10
80017234:	00000000 	nop
80017238:	03000003 	0x3000003
8001723c:	00000000 	nop
80017240:	10000000 	b	80017244 <boutcode+0x1200>
80017244:	00000000 	nop
80017248:	03000004 	sllv	zero,zero,t8
8001724c:	00000000 	nop
80017250:	10000000 	b	80017254 <boutcode+0x1210>
80017254:	00000000 	nop
80017258:	03000005 	0x3000005
8001725c:	00000000 	nop
80017260:	10000000 	b	80017264 <boutcode+0x1220>
80017264:	00000000 	nop
80017268:	03000006 	srlv	zero,zero,t8
	...
80017278:	03000007 	srav	zero,zero,t8
	...
80017288:	03000008 	jr	t8
8001728c:	00000000 	nop
	...
80017298:	03000009 	jalr	zero,t8
8001729c:	00000000 	nop
	...
800172a8:	0300000a 	movz	zero,t8,zero
	...
800172b8:	0300000b 	movn	zero,t8,zero
	...
800172c8:	0300000c 	syscall	0xc0000
800172cc:	00000001 	movf	zero,zero,$fcc0
	...
800172d8:	0400fff1 	bltz	zero,800172a0 <boutcode+0x125c>
800172dc:	00000006 	srlv	zero,zero,zero
	...
800172e8:	0400fff1 	bltz	zero,800172b0 <boutcode+0x126c>
800172ec:	00000010 	mfhi	zero
	...
800172f8:	0400fff1 	bltz	zero,800172c0 <boutcode+0x127c>
800172fc:	00000018 	mult	zero,zero
80017300:	00400b20 	0x400b20
80017304:	00000019 	multu	zero,zero
80017308:	01000003 	0x1000003
8001730c:	00000024 	and	zero,zero,zero
	...
80017318:	0400fff1 	bltz	zero,800172e0 <boutcode+0x129c>
8001731c:	0000002d 	0x2d
80017320:	004009d0 	0x4009d0
80017324:	00000094 	0x94
80017328:	02000002 	0x2000002
8001732c:	00000036 	tne	zero,zero
80017330:	00400150 	0x400150
80017334:	0000056c 	0x56c
80017338:	12000002 	beqz	s0,80017344 <boutcode+0x1300>
8001733c:	0000003f 	0x3f
80017340:	00400aa0 	0x400aa0
80017344:	00000064 	0x64
80017348:	12000002 	beqz	s0,80017354 <boutcode+0x1310>
8001734c:	00000046 	0x46
80017350:	00400108 	0x400108
80017354:	0000003c 	0x3c
80017358:	12000002 	beqz	s0,80017364 <boutcode+0x1320>
8001735c:	0000004f 	0x4f
80017360:	00400a64 	0x400a64
80017364:	0000003c 	0x3c
80017368:	12000002 	beqz	s0,80017374 <boutcode+0x1330>
8001736c:	00000056 	0x56
80017370:	10000000 	b	80017374 <boutcode+0x1330>
80017374:	00000000 	nop
80017378:	10000004 	b	8001738c <boutcode+0x1348>
8001737c:	0000005d 	0x5d
80017380:	10007ff0 	b	80037344 <pages+0x1fd70>
80017384:	00000000 	nop
80017388:	1000fff1 	b	80017350 <boutcode+0x130c>
8001738c:	00000061 	0x61
80017390:	00400844 	0x400844
80017394:	00000180 	sll	zero,zero,0x6
80017398:	12000002 	beqz	s0,800173a4 <boutcode+0x1360>
8001739c:	0000006a 	0x6a
800173a0:	004000e0 	0x4000e0
800173a4:	00000014 	0x14
800173a8:	12000002 	beqz	s0,800173b4 <boutcode+0x1370>
800173ac:	00000075 	0x75
800173b0:	004000b0 	tge	v0,zero,0x2
800173b4:	00000000 	nop
800173b8:	10000002 	b	800173c4 <boutcode+0x1380>
800173bc:	0000007c 	0x7c
800173c0:	0040073c 	0x40073c
800173c4:	00000108 	0x108
800173c8:	12000002 	beqz	s0,800173d4 <boutcode+0x1390>
800173cc:	00000088 	0x88
800173d0:	10000000 	b	800173d4 <boutcode+0x1390>
800173d4:	00000000 	nop
800173d8:	1000fff1 	b	800173a0 <boutcode+0x135c>
800173dc:	00000094 	0x94
800173e0:	004000b0 	tge	v0,zero,0x2
800173e4:	00000024 	and	zero,zero,zero
800173e8:	12000002 	beqz	s0,800173f4 <boutcode+0x13b0>
800173ec:	00000099 	0x99
800173f0:	004006bc 	0x4006bc
800173f4:	00000080 	sll	zero,zero,0x2
800173f8:	12000002 	beqz	s0,80017404 <boutcode+0x13c0>
800173fc:	000000a3 	0xa3
80017400:	10000000 	b	80017404 <boutcode+0x13c0>
80017404:	00000000 	nop
80017408:	1000fff1 	b	800173d0 <boutcode+0x138c>
8001740c:	000000aa 	0xaa
80017410:	10000000 	b	80017414 <boutcode+0x13d0>
80017414:	00000000 	nop
80017418:	1000fff1 	b	800173e0 <boutcode+0x139c>
8001741c:	000000af 	0xaf
80017420:	004000f4 	teq	v0,zero,0x3
80017424:	00000014 	0x14
80017428:	12000002 	beqz	s0,80017434 <boutcode+0x13f0>
8001742c:	000000b4 	teq	zero,zero,0x2
80017430:	10000000 	b	80017434 <boutcode+0x13f0>
80017434:	00000000 	nop
80017438:	1000fff1 	b	80017400 <boutcode+0x13bc>
8001743c:	00696e2e 	0x696e2e
80017440:	6300636f 	0x6300636f
80017444:	6e736f6c 	0x6e736f6c
80017448:	652e6300 	0x652e6300
8001744c:	7072696e 	0x7072696e
80017450:	742e6300 	jalx	80b98c00 <KVPT+0x798c00>
80017454:	74686546 	jalx	81a19518 <KVPT+0x1619518>
80017458:	6174616c 	0x6174616c
8001745c:	4d736700 	0x4d736700
80017460:	7072696e 	0x7072696e
80017464:	74662e63 	jalx	8198b98c <KVPT+0x158b98c>
80017468:	006d796f 	0x6d796f
8001746c:	75747075 	jalx	85d1c1d4 <KVPT+0x591c1d4>
80017470:	74006c70 	jalx	8001b1c0 <pages+0x3bec>
80017474:	5f507269 	0x5f507269
80017478:	6e74005f 	0x6e74005f
8001747c:	70616e69 	0x70616e69
80017480:	63007072 	0x63007072
80017484:	696e7473 	0x696e7473
80017488:	74720070 	jalx	81c801c0 <KVPT+0x18801c0>
8001748c:	72696e74 	0x72696e74
80017490:	66005f66 	0x66005f66
80017494:	64617461 	0x64617461
80017498:	005f6770 	tge	v0,ra,0x19d
8001749c:	00507269 	0x507269
800174a0:	6e744e75 	0x6e744e75
800174a4:	6d007072 	0x6d007072
800174a8:	696e7463 	0x696e7463
800174ac:	68617263 	0x68617263
800174b0:	005f6674 	teq	v0,ra,0x199
800174b4:	65787400 	0x65787400
800174b8:	5072696e 	beql	v1,s2,80031a74 <pages+0x1a4a0>
800174bc:	74537472 	jalx	814dd1c8 <KVPT+0x10dd1c8>
800174c0:	696e6700 	0x696e6700
800174c4:	5f5f6273 	0x5f5f6273
800174c8:	735f7374 	0x735f7374
800174cc:	61727400 	0x61727400
800174d0:	6d61696e 	0x6d61696e
800174d4:	00507269 	0x507269
800174d8:	6e744368 	0x6e744368
800174dc:	6172005f 	0x6172005f
800174e0:	65646174 	0x65646174
800174e4:	61005f65 	0x61005f65
800174e8:	6e640068 	0x6e640068
800174ec:	616c7400 	0x616c7400
800174f0:	5f666273 	0x5f666273
800174f4:	73000000 	madd	t8,zero
	...

80017500 <KERNEL_SP>:
	...

80017510 <i.901>:
80017510:	00000001 	movf	zero,zero,$fcc0
	...
Disassembly of section .bss:

80017520 <envs>:
80017520:	00000000 	nop

80017524 <curenv>:
80017524:	00000000 	nop

80017528 <next_env_id.906>:
80017528:	00000000 	nop

8001752c <env_free_list>:
8001752c:	00000000 	nop

80017530 <freemem>:
80017530:	00000000 	nop

80017534 <page_free_list>:
	...

80017540 <exception_handlers>:
	...
Disassembly of section .scommon:

800175c0 <npage>:
800175c0:	00000000 	nop

800175c4 <boot_pgdir>:
800175c4:	00000000 	nop

800175c8 <maxpa>:
800175c8:	00000000 	nop

800175cc <basemem>:
800175cc:	00000000 	nop

800175d0 <extmem>:
800175d0:	00000000 	nop

800175d4 <pages>:
800175d4:	00000000 	nop
Disassembly of section .kernelstk:

803f8000 <KERNEL_STACK>:
	...
Disassembly of section .pdr:

00000000 <.pdr>:
   0:	80000080 	lb	zero,128(zero)
	...
  18:	0000001d 	0x1d
  1c:	0000001d 	0x1d
  20:	80010000 	lb	at,0(zero)
	...
  38:	0000001d 	0x1d
  3c:	0000001f 	0x1f
  40:	80010050 	lb	at,80(zero)
  44:	80000000 	lb	zero,0(zero)
  48:	fffffff8 	sdc3	$31,-8(ra)
	...
  54:	00000018 	mult	zero,zero
  58:	0000001d 	0x1d
  5c:	0000001f 	0x1f
  60:	80010090 	lb	at,144(zero)
  64:	80010000 	lb	at,0(zero)
  68:	fffffffc 	sdc3	$31,-4(ra)
	...
  74:	00000018 	mult	zero,zero
  78:	0000001d 	0x1d
  7c:	0000001f 	0x1f
  80:	80010124 	lb	at,292(zero)
	...
  98:	0000001d 	0x1d
  9c:	0000001f 	0x1f
  a0:	80010180 	lb	at,384(zero)
	...
  b8:	0000001d 	0x1d
  bc:	0000001f 	0x1f
  c0:	800101d0 	lb	at,464(zero)
	...
  d8:	0000001d 	0x1d
  dc:	0000001f 	0x1f
  e0:	800101e4 	lb	at,484(zero)
	...
  f8:	0000001d 	0x1d
  fc:	0000001f 	0x1f
 100:	800101f8 	lb	at,504(zero)
 104:	80010000 	lb	at,0(zero)
 108:	fffffffc 	sdc3	$31,-4(ra)
	...
 114:	00000018 	mult	zero,zero
 118:	0000001d 	0x1d
 11c:	0000001f 	0x1f
 120:	80010240 	lb	at,576(zero)
	...
 138:	0000001d 	0x1d
 13c:	0000001f 	0x1f
 140:	80010290 	lb	at,656(zero)
	...
 158:	0000001d 	0x1d
 15c:	0000001f 	0x1f
 160:	8001037c 	lb	at,892(zero)
	...
 178:	0000001d 	0x1d
 17c:	0000001f 	0x1f
 180:	80010468 	lb	at,1128(zero)
 184:	80000000 	lb	zero,0(zero)
 188:	fffffff8 	sdc3	$31,-8(ra)
	...
 194:	00000018 	mult	zero,zero
 198:	0000001d 	0x1d
 19c:	0000001f 	0x1f
 1a0:	8001050c 	lb	at,1292(zero)
 1a4:	80010000 	lb	at,0(zero)
 1a8:	fffffffc 	sdc3	$31,-4(ra)
	...
 1b4:	00000028 	0x28
 1b8:	0000001d 	0x1d
 1bc:	0000001f 	0x1f
 1c0:	80010678 	lb	at,1656(zero)
 1c4:	80070000 	lb	a3,0(zero)
 1c8:	fffffffc 	sdc3	$31,-4(ra)
	...
 1d4:	00000020 	add	zero,zero,zero
 1d8:	0000001d 	0x1d
 1dc:	0000001f 	0x1f
 1e0:	80010734 	lb	at,1844(zero)
 1e4:	80ff0000 	lb	ra,0(a3)
 1e8:	fffffff8 	sdc3	$31,-8(ra)
	...
 1f4:	00000040 	ssnop
 1f8:	0000001d 	0x1d
 1fc:	0000001f 	0x1f
 200:	80010894 	lb	at,2196(zero)
 204:	80030000 	lb	v1,0(zero)
 208:	fffffff8 	sdc3	$31,-8(ra)
	...
 214:	00000028 	0x28
 218:	0000001d 	0x1d
 21c:	0000001f 	0x1f
 220:	800108dc 	lb	at,2268(zero)
 224:	c0ff0000 	ll	ra,0(a3)
 228:	fffffffc 	sdc3	$31,-4(ra)
	...
 234:	00000038 	0x38
 238:	0000001d 	0x1d
 23c:	0000001f 	0x1f
 240:	80010ad8 	lb	at,2776(zero)
 244:	80010000 	lb	at,0(zero)
 248:	fffffffc 	sdc3	$31,-4(ra)
	...
 254:	00000018 	mult	zero,zero
 258:	0000001d 	0x1d
 25c:	0000001f 	0x1f
 260:	80010b40 	lb	at,2880(zero)
 264:	80070000 	lb	a3,0(zero)
 268:	fffffffc 	sdc3	$31,-4(ra)
	...
 274:	00000020 	add	zero,zero,zero
 278:	0000001d 	0x1d
 27c:	0000001f 	0x1f
 280:	80010c00 	lb	at,3072(zero)
	...
 298:	0000001d 	0x1d
 29c:	0000001f 	0x1f
 2a0:	80010cc4 	lb	at,3268(zero)
	...
 2b8:	0000001d 	0x1d
 2bc:	0000001f 	0x1f
 2c0:	80010dc0 	lb	at,3520(zero)
	...
 2d4:	0000009c 	0x9c
 2d8:	0000001d 	0x1d
 2dc:	0000001d 	0x1d
 2e0:	80010f08 	lb	at,3848(zero)
	...
 2f8:	0000001d 	0x1d
 2fc:	0000001f 	0x1f
 300:	80010f08 	lb	at,3848(zero)
	...
 318:	0000001d 	0x1d
 31c:	0000001d 	0x1d
 320:	80011000 	lb	at,4096(zero)
	...
 334:	0000009c 	0x9c
 338:	0000001d 	0x1d
 33c:	0000001d 	0x1d
 340:	80011140 	lb	at,4416(zero)
	...
 354:	0000009c 	0x9c
 358:	0000001d 	0x1d
 35c:	0000001d 	0x1d
 360:	80011280 	lb	at,4736(zero)
	...
 374:	0000009c 	0x9c
 378:	0000001d 	0x1d
 37c:	0000001d 	0x1d
 380:	800113c0 	lb	at,5056(zero)
	...
 398:	0000001d 	0x1d
 39c:	0000001f 	0x1f
 3a0:	800113e0 	lb	at,5088(zero)
 3a4:	80000000 	lb	zero,0(zero)
 3a8:	fffffff8 	sdc3	$31,-8(ra)
	...
 3b4:	00000018 	mult	zero,zero
 3b8:	0000001d 	0x1d
 3bc:	0000001f 	0x1f
 3c0:	80011400 	lb	at,5120(zero)
	...
 3d8:	0000001d 	0x1d
 3dc:	0000001f 	0x1f
 3e0:	80011440 	lb	at,5184(zero)
 3e4:	801f0000 	lb	ra,0(zero)
 3e8:	fffffffc 	sdc3	$31,-4(ra)
	...
 3f4:	00000420 	0x420
 3f8:	0000001d 	0x1d
 3fc:	0000001f 	0x1f
 400:	800119ac 	lb	at,6572(zero)
	...
 418:	0000001d 	0x1d
 41c:	0000001f 	0x1f
 420:	80011a2c 	lb	at,6700(zero)
	...
 438:	0000001d 	0x1d
 43c:	0000001f 	0x1f
 440:	80011b34 	lb	at,6964(zero)
	...
 458:	0000001d 	0x1d
 45c:	0000001f 	0x1f
 460:	80011cc0 	lb	at,7360(zero)
 464:	80070000 	lb	a3,0(zero)
 468:	fffffffc 	sdc3	$31,-4(ra)
	...
 474:	00000020 	add	zero,zero,zero
 478:	0000001d 	0x1d
 47c:	0000001f 	0x1f
 480:	80011d54 	lb	at,7508(zero)
 484:	80000000 	lb	zero,0(zero)
 488:	fffffff8 	sdc3	$31,-8(ra)
	...
 494:	00000020 	add	zero,zero,zero
 498:	0000001d 	0x1d
 49c:	0000001f 	0x1f
 4a0:	80011d90 	lb	at,7568(zero)
 4a4:	80010000 	lb	at,0(zero)
 4a8:	fffffffc 	sdc3	$31,-4(ra)
	...
 4b4:	00000020 	add	zero,zero,zero
 4b8:	0000001d 	0x1d
 4bc:	0000001f 	0x1f
 4c0:	80011e00 	lb	at,7680(zero)
 4c4:	80000000 	lb	zero,0(zero)
 4c8:	fffffff8 	sdc3	$31,-8(ra)
	...
 4d4:	00000018 	mult	zero,zero
 4d8:	0000001d 	0x1d
 4dc:	0000001f 	0x1f
 4e0:	80011e50 	lb	at,7760(zero)
	...
 4f4:	0000009c 	0x9c
 4f8:	0000001d 	0x1d
 4fc:	0000001d 	0x1d
 500:	80012050 	lb	at,8272(zero)
 504:	80000000 	lb	zero,0(zero)
 508:	fffffff8 	sdc3	$31,-8(ra)
	...
 514:	00000018 	mult	zero,zero
 518:	0000001d 	0x1d
 51c:	0000001f 	0x1f
 520:	80012070 	lb	at,8304(zero)
	...
 538:	0000001d 	0x1d
 53c:	0000001f 	0x1f
 540:	800120a0 	lb	at,8352(zero)
	...
 558:	0000001d 	0x1d
 55c:	0000001f 	0x1f
 560:	800120b0 	lb	at,8368(zero)
 564:	80000000 	lb	zero,0(zero)
 568:	fffffff8 	sdc3	$31,-8(ra)
	...
 574:	00000018 	mult	zero,zero
 578:	0000001d 	0x1d
 57c:	0000001f 	0x1f
 580:	800120e8 	lb	at,8424(zero)
 584:	80000000 	lb	zero,0(zero)
 588:	fffffff8 	sdc3	$31,-8(ra)
	...
 594:	00000020 	add	zero,zero,zero
 598:	0000001d 	0x1d
 59c:	0000001f 	0x1f
 5a0:	80012138 	lb	at,8504(zero)
 5a4:	80030000 	lb	v1,0(zero)
 5a8:	fffffff8 	sdc3	$31,-8(ra)
	...
 5b4:	00000028 	0x28
 5b8:	0000001d 	0x1d
 5bc:	0000001f 	0x1f
 5c0:	800121a0 	lb	at,8608(zero)
 5c4:	80030000 	lb	v1,0(zero)
 5c8:	fffffff8 	sdc3	$31,-8(ra)
	...
 5d4:	00000028 	0x28
 5d8:	0000001d 	0x1d
 5dc:	0000001f 	0x1f
 5e0:	800122b4 	lb	at,8884(zero)
 5e4:	800f0000 	lb	t7,0(zero)
 5e8:	fffffff8 	sdc3	$31,-8(ra)
	...
 5f4:	00000038 	0x38
 5f8:	0000001d 	0x1d
 5fc:	0000001f 	0x1f
 600:	80012388 	lb	at,9096(zero)
 604:	80030000 	lb	v1,0(zero)
 608:	fffffff8 	sdc3	$31,-8(ra)
	...
 614:	00000028 	0x28
 618:	0000001d 	0x1d
 61c:	0000001f 	0x1f
 620:	800123dc 	lb	at,9180(zero)
 624:	80000000 	lb	zero,0(zero)
 628:	fffffff8 	sdc3	$31,-8(ra)
	...
 634:	00000020 	add	zero,zero,zero
 638:	0000001d 	0x1d
 63c:	0000001f 	0x1f
 640:	80012468 	lb	at,9320(zero)
 644:	80010000 	lb	at,0(zero)
 648:	fffffffc 	sdc3	$31,-4(ra)
	...
 654:	00000020 	add	zero,zero,zero
 658:	0000001d 	0x1d
 65c:	0000001f 	0x1f
 660:	800124bc 	lb	at,9404(zero)
	...
 678:	0000001d 	0x1d
 67c:	0000001f 	0x1f
 680:	800124c4 	lb	at,9412(zero)
 684:	80000000 	lb	zero,0(zero)
 688:	fffffff8 	sdc3	$31,-8(ra)
	...
 694:	00000018 	mult	zero,zero
 698:	0000001d 	0x1d
 69c:	0000001f 	0x1f
 6a0:	800124f8 	lb	at,9464(zero)
 6a4:	80000000 	lb	zero,0(zero)
 6a8:	fffffff8 	sdc3	$31,-8(ra)
	...
 6b4:	00000018 	mult	zero,zero
 6b8:	0000001d 	0x1d
 6bc:	0000001f 	0x1f
 6c0:	800125a4 	lb	at,9636(zero)
 6c4:	800f0000 	lb	t7,0(zero)
 6c8:	fffffff8 	sdc3	$31,-8(ra)
	...
 6d4:	00000030 	tge	zero,zero
 6d8:	0000001d 	0x1d
 6dc:	0000001f 	0x1f
 6e0:	800126d0 	lb	at,9936(zero)
 6e4:	80070000 	lb	a3,0(zero)
 6e8:	fffffffc 	sdc3	$31,-4(ra)
	...
 6f4:	00000020 	add	zero,zero,zero
 6f8:	0000001d 	0x1d
 6fc:	0000001f 	0x1f
 700:	8001276c 	lb	at,10092(zero)
	...
 718:	0000001d 	0x1d
 71c:	0000001f 	0x1f
 720:	80012788 	lb	at,10120(zero)
 724:	80010000 	lb	at,0(zero)
 728:	fffffffc 	sdc3	$31,-4(ra)
	...
 734:	000000b8 	0xb8
 738:	0000001d 	0x1d
 73c:	0000001f 	0x1f
 740:	80012830 	lb	at,10288(zero)
 744:	80030000 	lb	v1,0(zero)
 748:	fffffff8 	sdc3	$31,-8(ra)
	...
 754:	00000020 	add	zero,zero,zero
 758:	0000001d 	0x1d
 75c:	0000001f 	0x1f
 760:	800128a8 	lb	at,10408(zero)
 764:	800f0000 	lb	t7,0(zero)
 768:	fffffff8 	sdc3	$31,-8(ra)
	...
 774:	00000028 	0x28
 778:	0000001d 	0x1d
 77c:	0000001f 	0x1f
 780:	800129a4 	lb	at,10660(zero)
 784:	80030000 	lb	v1,0(zero)
 788:	fffffff8 	sdc3	$31,-8(ra)
	...
 794:	00000020 	add	zero,zero,zero
 798:	0000001d 	0x1d
 79c:	0000001f 	0x1f
 7a0:	80012a70 	lb	at,10864(zero)
 7a4:	80ff0000 	lb	ra,0(a3)
 7a8:	fffffff8 	sdc3	$31,-8(ra)
	...
 7b4:	00000038 	0x38
 7b8:	0000001d 	0x1d
 7bc:	0000001f 	0x1f
 7c0:	80012b4c 	lb	at,11084(zero)
 7c4:	80030000 	lb	v1,0(zero)
 7c8:	fffffff8 	sdc3	$31,-8(ra)
	...
 7d4:	00000028 	0x28
 7d8:	0000001d 	0x1d
 7dc:	0000001f 	0x1f
 7e0:	80012c7c 	lb	at,11388(zero)
 7e4:	80030000 	lb	v1,0(zero)
 7e8:	fffffff8 	sdc3	$31,-8(ra)
	...
 7f4:	00000020 	add	zero,zero,zero
 7f8:	0000001d 	0x1d
 7fc:	0000001f 	0x1f
 800:	80012e64 	lb	at,11876(zero)
 804:	80000000 	lb	zero,0(zero)
 808:	fffffff8 	sdc3	$31,-8(ra)
	...
 814:	00000018 	mult	zero,zero
 818:	0000001d 	0x1d
 81c:	0000001f 	0x1f
 820:	80012e80 	lb	at,11904(zero)
 824:	80010000 	lb	at,0(zero)
 828:	fffffffc 	sdc3	$31,-4(ra)
	...
 834:	00000018 	mult	zero,zero
 838:	0000001d 	0x1d
 83c:	0000001f 	0x1f
 840:	80012f50 	lb	at,12112(zero)
	...
 858:	0000001d 	0x1d
 85c:	0000001f 	0x1f
 860:	80012f88 	lb	at,12168(zero)
 864:	80000000 	lb	zero,0(zero)
 868:	fffffff8 	sdc3	$31,-8(ra)
	...
 874:	00000018 	mult	zero,zero
 878:	0000001d 	0x1d
 87c:	0000001f 	0x1f
 880:	80012fb8 	lb	at,12216(zero)
 884:	80070000 	lb	a3,0(zero)
 888:	fffffffc 	sdc3	$31,-4(ra)
	...
 894:	00000028 	0x28
 898:	0000001d 	0x1d
 89c:	0000001f 	0x1f
 8a0:	80013134 	lb	at,12596(zero)
 8a4:	800f0000 	lb	t7,0(zero)
 8a8:	fffffff8 	sdc3	$31,-8(ra)
	...
 8b4:	00000030 	tge	zero,zero
 8b8:	0000001d 	0x1d
 8bc:	0000001f 	0x1f
 8c0:	800132c8 	lb	at,13000(zero)
 8c4:	80010000 	lb	at,0(zero)
 8c8:	fffffffc 	sdc3	$31,-4(ra)
	...
 8d4:	00000020 	add	zero,zero,zero
 8d8:	0000001d 	0x1d
 8dc:	0000001f 	0x1f
 8e0:	80013360 	lb	at,13152(zero)
 8e4:	80030000 	lb	v1,0(zero)
 8e8:	fffffff8 	sdc3	$31,-8(ra)
	...
 8f4:	00000028 	0x28
 8f8:	0000001d 	0x1d
 8fc:	0000001f 	0x1f
 900:	800133cc 	lb	at,13260(zero)
 904:	80000000 	lb	zero,0(zero)
 908:	fffffff8 	sdc3	$31,-8(ra)
	...
 914:	00000018 	mult	zero,zero
 918:	0000001d 	0x1d
 91c:	0000001f 	0x1f
 920:	8001341c 	lb	at,13340(zero)
 924:	80030000 	lb	v1,0(zero)
 928:	fffffff8 	sdc3	$31,-8(ra)
	...
 934:	00000030 	tge	zero,zero
 938:	0000001d 	0x1d
 93c:	0000001f 	0x1f
 940:	800140ec 	lb	at,16620(zero)
 944:	80030000 	lb	v1,0(zero)
 948:	fffffff8 	sdc3	$31,-8(ra)
	...
 954:	00000028 	0x28
 958:	0000001d 	0x1d
 95c:	0000001f 	0x1f
 960:	800141d0 	lb	at,16848(zero)
	...
 978:	0000001d 	0x1d
 97c:	0000001f 	0x1f
Disassembly of section .comment:

00000000 <.comment>:
   0:	00474343 	0x474343
   4:	3a202847 	xori	zero,s1,0x2847
   8:	4e552920 	c3	0x552920
   c:	342e302e 	ori	t6,at,0x302e
  10:	30202844 	andi	zero,at,0x2844
  14:	454e5820 	0x454e5820
  18:	454c444b 	0x454c444b
  1c:	20342e31 	addi	s4,at,11825
  20:	20342e30 	addi	s4,at,11824
  24:	2e302900 	sltiu	s0,s1,10496
  28:	00474343 	0x474343
  2c:	3a202847 	xori	zero,s1,0x2847
  30:	4e552920 	c3	0x552920
  34:	342e302e 	ori	t6,at,0x302e
  38:	30202844 	andi	zero,at,0x2844
  3c:	454e5820 	0x454e5820
  40:	454c444b 	0x454c444b
  44:	20342e31 	addi	s4,at,11825
  48:	20342e30 	addi	s4,at,11824
  4c:	2e302900 	sltiu	s0,s1,10496
  50:	00474343 	0x474343
  54:	3a202847 	xori	zero,s1,0x2847
  58:	4e552920 	c3	0x552920
  5c:	342e302e 	ori	t6,at,0x302e
  60:	30202844 	andi	zero,at,0x2844
  64:	454e5820 	0x454e5820
  68:	454c444b 	0x454c444b
  6c:	20342e31 	addi	s4,at,11825
  70:	20342e30 	addi	s4,at,11824
  74:	2e302900 	sltiu	s0,s1,10496
  78:	00474343 	0x474343
  7c:	3a202847 	xori	zero,s1,0x2847
  80:	4e552920 	c3	0x552920
  84:	342e302e 	ori	t6,at,0x302e
  88:	30202844 	andi	zero,at,0x2844
  8c:	454e5820 	0x454e5820
  90:	454c444b 	0x454c444b
  94:	20342e31 	addi	s4,at,11825
  98:	20342e30 	addi	s4,at,11824
  9c:	2e302900 	sltiu	s0,s1,10496
  a0:	00474343 	0x474343
  a4:	3a202847 	xori	zero,s1,0x2847
  a8:	4e552920 	c3	0x552920
  ac:	342e302e 	ori	t6,at,0x302e
  b0:	30202844 	andi	zero,at,0x2844
  b4:	454e5820 	0x454e5820
  b8:	454c444b 	0x454c444b
  bc:	20342e31 	addi	s4,at,11825
  c0:	20342e30 	addi	s4,at,11824
  c4:	2e302900 	sltiu	s0,s1,10496
  c8:	00474343 	0x474343
  cc:	3a202847 	xori	zero,s1,0x2847
  d0:	4e552920 	c3	0x552920
  d4:	342e302e 	ori	t6,at,0x302e
  d8:	30202844 	andi	zero,at,0x2844
  dc:	454e5820 	0x454e5820
  e0:	454c444b 	0x454c444b
  e4:	20342e31 	addi	s4,at,11825
  e8:	20342e30 	addi	s4,at,11824
  ec:	2e302900 	sltiu	s0,s1,10496
  f0:	00474343 	0x474343
  f4:	3a202847 	xori	zero,s1,0x2847
  f8:	4e552920 	c3	0x552920
  fc:	342e302e 	ori	t6,at,0x302e
 100:	30202844 	andi	zero,at,0x2844
 104:	454e5820 	0x454e5820
 108:	454c444b 	0x454c444b
 10c:	20342e31 	addi	s4,at,11825
 110:	20342e30 	addi	s4,at,11824
 114:	2e302900 	sltiu	s0,s1,10496
 118:	00474343 	0x474343
 11c:	3a202847 	xori	zero,s1,0x2847
 120:	4e552920 	c3	0x552920
 124:	342e302e 	ori	t6,at,0x302e
 128:	30202844 	andi	zero,at,0x2844
 12c:	454e5820 	0x454e5820
 130:	454c444b 	0x454c444b
 134:	20342e31 	addi	s4,at,11825
 138:	20342e30 	addi	s4,at,11824
 13c:	2e302900 	sltiu	s0,s1,10496
 140:	00474343 	0x474343
 144:	3a202847 	xori	zero,s1,0x2847
 148:	4e552920 	c3	0x552920
 14c:	342e302e 	ori	t6,at,0x302e
 150:	30202844 	andi	zero,at,0x2844
 154:	454e5820 	0x454e5820
 158:	454c444b 	0x454c444b
 15c:	20342e31 	addi	s4,at,11825
 160:	20342e30 	addi	s4,at,11824
 164:	2e302900 	sltiu	s0,s1,10496
 168:	00474343 	0x474343
 16c:	3a202847 	xori	zero,s1,0x2847
 170:	4e552920 	c3	0x552920
 174:	342e302e 	ori	t6,at,0x302e
 178:	30202844 	andi	zero,at,0x2844
 17c:	454e5820 	0x454e5820
 180:	454c444b 	0x454c444b
 184:	20342e31 	addi	s4,at,11825
 188:	20342e30 	addi	s4,at,11824
 18c:	2e302900 	sltiu	s0,s1,10496
 190:	00474343 	0x474343
 194:	3a202847 	xori	zero,s1,0x2847
 198:	4e552920 	c3	0x552920
 19c:	342e302e 	ori	t6,at,0x302e
 1a0:	30202844 	andi	zero,at,0x2844
 1a4:	454e5820 	0x454e5820
 1a8:	454c444b 	0x454c444b
 1ac:	20342e31 	addi	s4,at,11825
 1b0:	20342e30 	addi	s4,at,11824
 1b4:	2e302900 	sltiu	s0,s1,10496
 1b8:	00474343 	0x474343
 1bc:	3a202847 	xori	zero,s1,0x2847
 1c0:	4e552920 	c3	0x552920
 1c4:	342e302e 	ori	t6,at,0x302e
 1c8:	30202844 	andi	zero,at,0x2844
 1cc:	454e5820 	0x454e5820
 1d0:	454c444b 	0x454c444b
 1d4:	20342e31 	addi	s4,at,11825
 1d8:	20342e30 	addi	s4,at,11824
 1dc:	2e302900 	sltiu	s0,s1,10496
